(dp1
S'A'
(dp2
VItalian Peninsula
p3
I1
sVSamuel Johnson
p4
I1
sVCyrillic
p5
I1
sVAlphabet
p6
I1
sVLatin language
p7
I1
sVclose-mid front unrounded vowel
p8
I1
sVletter case
p9
I1
sVordinal indicator
p10
I1
sVbrassiere
p11
I1
sVBlackletter
p12
I1
sVglyphs
p13
I1
sVISO basic Latin alphabet
p14
I1
sVEnglish orthography
p15
I1
sVLine segment
p16
I1
sVtriangle
p17
I1
sVRoman Empire
p18
I1
sVCarolingian minuscule
p19
I1
sVPhoenician language
p20
I1
sVMiddle English lengthening
p21
I1
sVGeneral American
p22
I1
sVX-SAMPA
p23
I1
sVList of Latin-script digraphs
p24
I1
sVGothic alphabet
p25
I1
sVA (Cyrillic)
p26
I1
sVArabic script
p27
I1
sVopen back unrounded vowel
p28
I1
sVHebrew alphabet
p29
I1
sVGreek Dark Ages
p30
I1
sVLatin
p31
I1
sVopen-mid back unrounded vowel
p32
I1
sVInternational Phonetic Alphabet
p33
I1
sVAe (digraph)
p34
I1
sVLatin alpha
p35
I1
sVglottal stop
p36
I1
sVnear-open central vowel
p37
I1
sVEgyptian hieroglyphs
p38
I1
sVEtruscan civilization
p39
I1
sVcursive
p40
I1
sVgeometry
p41
I1
sVASCII
p42
I1
sVaardvark
p43
I1
sVGreek alphabet
p44
I1
sVUncial script
p45
I1
sVAt sign
p46
I1
sVnear-open front unrounded vowel
p47
I1
sVLogographic
p48
I1
sVGreat Vowel Shift
p49
I1
sVRunes
p50
I1
sVpictogram
p51
I1
sVopen central unrounded vowel
p52
I1
sVIndo-European studies
p53
I1
sVA-list
p54
I1
sVArgentine austral
p55
I1
sVEau (trigraph)
p56
I1
sVTeuthonista
p57
I1
sVPhoenician alphabet
p58
I1
sVOld Italic script
p59
I1
sVOpen front unrounded vowel
p60
I1
sVopen back rounded vowel
p61
I1
sVUralic Phonetic Alphabet
p62
I1
sVAleph
p63
I1
sVschwa
p64
I1
sVopen front unrounded vowel
p65
I1
sVObsolete and nonstandard symbols in the International Phonetic Alphabet
p66
I1
sVserif
p67
I1
sVAncient Greece
p68
I1
sValeph
p69
I1
sVEBCDIC
p70
I1
sVconsonant
p71
I1
sVturned V
p72
I1
sVMerovingian script
p73
I1
sVLetter (alphabet)
p74
I1
sVAnsuz (rune)
p75
I1
sVhandwriting
p76
I1
sVSaanich dialect
p77
I1
sVtau
p78
I1
sVmotivation
p79
I1
sVItaly
p80
I1
sVdiacritic
p81
I1
sVInsular script
p82
I1
sVuniversal quantification
p83
I1
sVLatin script
p84
I1
sVphoneme
p85
I1
sVpredicate logic
p86
I1
sVTurned A
p87
I1
sVVisigothic script
p88
I1
sVItalic type
p89
I1
sValphabet
p90
I1
sVline (geometry)
p91
I1
sVAlpha
p92
I1
sVitalic type
p93
I1
sValgebra
p94
I1
sVAllography
p95
I1
sVproto-Sinaitic script
p96
I1
sVCoptic alphabet
p97
I1
sVvowel
p98
I1
sValpha
p99
I1
sVSemitic languages
p100
I1
sVabjad
p101
I1
sVdiphthong
p102
I1
ssS'Actrius'
p103
(dp104
VThe Evening Standard
p105
I1
sVMRQE
p106
I1
sVGoya Awards
p107
I1
sVLos Angeles Times
p108
I1
sVAnna Lizaran
p109
I1
sVStockholm International Film Festival
p110
I1
sVButaca Awards
p111
I1
sVGeneralitat de Catalunya
p112
I1
sVEl Pais
p113
I1
sVJosep Maria Benet i Jornet
p114
I1
sVHighbeam
p115
I1
sVBuena Vista International
p116
I1
sVAmerican Cinematheque
p117
I1
sVDaily Mail
p118
I1
sVRashomon
p119
I1
sVThe Guardian
p120
I1
sVCatalan language
p121
I1
sVVentura Pons
p122
I1
sVSpain
p123
I1
sVAll About Eve
p124
I1
ssS'Anarchism'
p125
(dp126
Vnaturist
p127
I1
sVindividual reclamation
p128
I1
sVAdolf Brand
p129
I1
sVJosiah Warren
p130
I1
sVFreethought
p131
I1
sVdirect action
p132
I1
sVanarcha-feminism
p133
I1
sVAnarchism in Mexico
p134
I1
sVLysander Spooner
p135
I1
sVEnglish Civil War
p136
I1
sVanarchism and issues related to love and sex
p137
I1
sVPlato
p138
I1
sVIndividualist anarchism in France
p139
I1
sVG8
p140
I1
sVSebastien Faure
p141
I1
sVAnarchism and religion
p142
I1
sVimamate
p143
I1
sVVolin
p144
I1
sVveganarchism
p145
I1
sVChicago Tribune
p146
I1
sVEdna St. Vincent Millay
p147
I1
sVVerso Books
p148
I1
sVSynthesis anarchism
p149
I1
sVlabour movement
p150
I1
sVegoist anarchism
p151
I1
sVRobert Owen
p152
I1
sVBBC Radio 4
p153
I1
sVsocialist
p154
I1
sVpost-humanism
p155
I1
sVpostcolonialism
p156
I1
sVTurkey
p157
I1
sVMother Earth (magazine)
p158
I1
sVanti war movement
p159
I1
sVState (polity)
p160
I1
sVsecurity culture
p161
I1
sVDiogenes of Sinope
p162
I1
sVNew Right
p163
I1
sVProgressive education
p164
I1
sVUmberto I of Italy
p165
I1
sVBolsheviks
p166
I1
sVAnarchist schools of thought
p167
I1
sVNEFAC
p168
I1
sVJacques Ellul
p169
I1
sVAK Press
p170
I1
sVCrypto-anarchism
p171
I1
sVautonomism
p172
I1
sVSonnenburg
p173
I1
sVGustave Courbet
p174
I1
sVAnti-fascism
p175
I1
sVPlatformist
p176
I1
sVThe History of Sexuality
p177
I1
sVpropaganda of the deed
p178
I1
sVPlatformism
p179
I1
sVtranshumanism
p180
I1
sVFraye Arbeter Shtime
p181
I1
sVThe Invisible Committee
p182
I1
sVoxymoron
p183
I1
sVAn Anarchist FAQ
p184
I1
sVParis Commune
p185
I1
sVHaymarket affair
p186
I1
sVBenito Mussolini
p187
I1
sVOranienburg
p188
I1
sVFree Society
p189
I1
sVHenry David Thoreau
p190
I1
sVGeorge I of Greece
p191
I1
sVcommunards
p192
I1
sVGustav Landauer
p193
I1
sVLucifer the Lightbearer
p194
I1
sVMoses Harman
p195
I1
sVcoercion
p196
I1
sVregicide
p197
I1
sVrationalist
p198
I1
sVsimple living
p199
I1
sVResistance during World War II
p200
I1
sVBaja California
p201
I1
sVMexican Liberal Party
p202
I1
sVindividualism
p203
I1
sVCrass
p204
I1
sVblack bloc
p205
I1
sVSpanish Revolution of 1936
p206
I1
sVEmpress Elisabeth of Austria
p207
I1
sVFree association (communism and anarchism)
p208
I1
sVgeneral strike
p209
I1
sVOnline etymology dictionary
p210
I1
sVMargaret Anderson
p211
I1
sVCommunalism
p212
I1
sVTraditional knowledge
p213
I1
sVJapanese Anarchist Federation
p214
I1
sVPierre Monatte
p215
I1
sVSemiotext(e)
p216
I1
sVorganized religion
p217
I1
sVsexual revolution
p218
I1
sVNationalism
p219
I1
sVBavarian Soviet Republic
p220
I1
sVabstentionism
p221
I1
sVEugene Varlin
p222
I1
sVRenaissance humanism
p223
I1
sVCommunist Party of Spain
p224
I1
sVFriedrich Engels
p225
I1
sVCaliphate
p226
I1
sVAnarcho-syndicalism
p227
I1
sVAnarcho-pacifism
p228
I1
sVJohn Cage
p229
I1
sVMarxism
p230
I1
sVArthur Rimbaud
p231
I1
sVUmanita Nova
p232
I1
sVJoseph Goebbels
p233
I1
sVanarchism and nationalism
p234
I1
sVPaul Goodman (writer)
p235
I1
sVPeter Kropotkin
p236
I1
sVReligious anarchism
p237
I1
sVAnselme Bellegarrigue
p238
I1
sVDielo Truda
p239
I1
sVmoral obligation
p240
I1
sVhedonist
p241
I1
sV-ism
p242
I1
sVneo-liberalism
p243
I1
sVAustrian School
p244
I1
sVPaul Avrich
p245
I1
sVphilosophy
p246
I1
sVfreethought
p247
I1
sVFederal Democratic Republican Party
p248
I1
sVAdolf Hitler
p249
I1
sVanarchist economics
p250
I1
sVCavalier
p251
I1
sVSyria
p252
I1
sVComstockery
p253
I1
sVPermanent autonomous zone
p254
I1
sVZNet
p255
I1
sVWorld Economic Forum
p256
I1
sVpolitical theology
p257
I1
sVright libertarianism
p258
I1
sVcapitalism
p259
I1
sVSex Pistols
p260
I1
sVcapitalist
p261
I1
sVJoseph Dejacque
p262
I1
sVBob Black
p263
I1
sVTaoism
p264
I1
sVcommon ownership
p265
I1
sVBohemianism
p266
I1
sVtechnogaianism
p267
I1
sVWilliam Batchelder Greene
p268
I1
sVCollective farming
p269
I1
sVpopular education
p270
I1
sVbiphobia
p271
I1
sVtargeted killings
p272
I1
sVRevolutionary Catalonia
p273
I1
sVProtestant Christianity
p274
I1
sVIndividualist anarchism
p275
I1
sVAnti-statism
p276
I1
sVWorld Trade Organization
p277
I1
sVanarchist schools of thought
p278
I1
sVFoundation for Economic Education
p279
I1
sVPluto Press
p280
I1
sVLibertarianism
p281
I1
sVSocialism
p282
I1
sVKharijites
p283
I1
sVBolshevik
p284
I1
sVleft-wing politics
p285
I1
sVKegan Paul
p286
I1
sVAnarchist Aragon
p287
I1
sVStirnerism
p288
I1
sVhomophobia
p289
I1
sVPost-left anarchy
p290
I1
sVAge of Enlightenment
p291
I1
sVBlanquism
p292
I1
sVWalden
p293
I1
sVmutual aid (organization)
p294
I1
sVFar-left politics
p295
I1
sVprivative
p296
I1
sVrevolutions of 1848
p297
I1
sVMerriam-Webster
p298
I1
sVpunk rock
p299
I1
sVMax Stirner
p300
I1
sVAssociation of Private Enterprise Education
p301
I1
sVJacobin (politics)
p302
I1
sVindividualist anarchism in France
p303
I1
sVagriculture
p304
I1
sVanarchy
p305
I1
sVFeminism
p306
I1
sVGay Liberation Front
p307
I1
sVreformism
p308
I1
sVheteronormativity
p309
I1
sVmarket economy
p310
I1
sVpolyamory
p311
I1
sVInternational Anarchist Congress of Amsterdam
p312
I1
sVThe Ego and Its Own
p313
I1
sVUkraine
p314
I1
sVCivil Disobedience (Thoreau)
p315
I1
sVA Vindication of Natural Society
p316
I1
sVSpanish Civil War
p317
I1
sVDavid Graeber
p318
I1
sVJames Guillaume
p319
I1
sVInsurrectionary anarchism
p320
I1
sVcivilisation
p321
I1
sVFernand Pelloutier
p322
I1
sVFrancoist Spain
p323
I1
sVRoutledge Encyclopedia of Philosophy
p324
I1
sVBulgaria
p325
I1
sVVoline
p326
I1
sVZeno of Citium
p327
I1
sVanarcho-communists
p328
I1
sVHierarchy
p329
I1
sVMadrid
p330
I1
sVlibertarianism
p331
I1
sVbisexuality
p332
I1
sVJesus
p333
I1
sVHenri Zisly
p334
I1
sVEight-hour day
p335
I1
sVFreetown Christiania
p336
I1
sVDorothy Day
p337
I1
sVMikhail Bakunin
p338
I1
sVEzra Heywood
p339
I1
sVJohann Heinrich Pestalozzi
p340
I1
sVMiguel Gimenez Igualada
p341
I1
sVindividual reappropriation
p342
I1
sVModern School (United States)
p343
I1
sVarchon
p344
I1
sVsocialist movement
p345
I1
sVHistory of Islam
p346
I1
sVThe Coming Insurrection
p347
I1
sVLawrence Jarach
p348
I1
sVAnti-authoritarianism
p349
I1
sVPolitical Justice
p350
I1
sVAllen Ginsberg
p351
I1
sVGeorge Woodcock
p352
I1
sVReichstag fire
p353
I1
sVAnti-Christianity
p354
I1
sVdecentralised
p355
I1
sVdeschooling
p356
I1
sVChristian movement
p357
I1
sVRepublican faction (Spanish Civil War)
p358
I1
sVAnarchism in Germany
p359
I1
sVCatalonia
p360
I1
sVLouise Michel
p361
I1
sVSolidarity Federation
p362
I1
sVEuropean individualist anarchism
p363
I1
sVLibertarian Alliance
p364
I1
sVPierre-Joseph Proudhon
p365
I1
sVThomas Hodgskin
p366
I1
sVMexican Revolution
p367
I1
sVBlackshirts
p368
I1
sVStateless society
p369
I1
sVJewish anarchism
p370
I1
sVRussian Civil War
p371
I1
sVproperty rights
p372
I1
sVOxford University Press
p373
I1
sVpropaganda by the deed
p374
I1
sVConfiscation
p375
I1
sVThe New Humanist
p376
I1
sVindividual
p377
I1
sVAnarchism in Russia
p378
I1
sVUruguayan Anarchist Federation
p379
I1
sVAnarcha-feminism
p380
I1
sVSelf-governance
p381
I1
sVCynicism (philosophy)
p382
I1
sVThe Word (free love)
p383
I1
sVCharles W. Johnson (philosopher)
p384
I1
sVLeopold Kohr
p385
I1
sVBucknell University Press
p386
I1
sVCampaign for Nuclear Disarmament
p387
I1
sVinsurrection
p388
I1
sVfree market
p389
I1
sVCommune
p390
I1
sVRuth Kinna
p391
I1
sVfascism in Europe
p392
I1
sVCarlos I of Portugal
p393
I1
sVSimon Critchley
p394
I1
sVheterosexual
p395
I1
sVGod
p396
I1
sVLayla AbdelRahim
p397
I1
sVMexican Anarchist Federation
p398
I1
sVAnarchist Seeds Beneath the Snow
p399
I1
sVAnarchism and Marxism
p400
I1
sVOctober Revolution
p401
I1
sVfar-right leagues
p402
I1
sVIndividualist anarchism in the United States
p403
I1
sVStuart Christie
p404
I1
sVAnti-nuclear movement
p405
I1
sVnihilist movement
p406
I1
sVprivate property
p407
I1
sVLuigi Fabbri
p408
I1
sVmorality
p409
I1
sVCommunist party
p410
I1
sVSam Dolgoff
p411
I1
sVArditi del Popolo
p412
I1
sVBenedict Anderson
p413
I1
sVAmmon Hennacy
p414
I1
sVSocial anarchism
p415
I1
sVUniversity of Westminster
p416
I1
sVOscar Wilde
p417
I1
sVFrench Revolution
p418
I1
sVpost-left anarchy
p419
I1
sVLevellers
p420
I1
sVComintern
p421
I1
sVtransphobia
p422
I1
sVThe Globe and Mail
p423
I1
sVanarchism without adjectives
p424
I1
sVPOUM
p425
I1
sVsocial control
p426
I1
sVmeans of production
p427
I1
sVMichel Onfray
p428
I1
sVMax Baginski
p429
I1
sVsyndicalism
p430
I1
sVAnarchism in Spain
p431
I1
sVIberian Anarchist Federation
p432
I1
sVInternational of Anarchist Federations
p433
I1
sVEmma Goldman
p434
I1
sVReign of Terror
p435
I1
sVanarchist free school
p436
I1
sVQueer anarchism
p437
I1
sVanti-authoritarian
p438
I1
sVtrade unionism
p439
I1
sVKarl Marx
p440
I1
sVLGBT community
p441
I1
sVhumanism
p442
I1
sVnon-violence
p443
I1
sVCarrara
p444
I1
sVpolitical philosophy
p445
I1
sVRevolutions of 1848
p446
I1
sVKevin Carson
p447
I1
sVAnarcho-transhumanism
p448
I1
sVRoutledge
p449
I1
sVRussian Revolution (1917)
p450
I1
sVEmile Armand
p451
I1
sVinsurrectionary anarchism
p452
I1
sVFrancisco Franco
p453
I1
sVsocial anarchism
p454
I1
sVZhuang Zhou
p455
I1
sVFree Territory
p456
I1
sVWhite movement
p457
I1
sVGreenwich Village
p458
I1
sVVirginia Bolten
p459
I1
sVFascism
p460
I1
sVtranscendentalist
p461
I1
sVpublic choice theory
p462
I1
sVRed Army Faction
p463
I1
sVAlexander Berkman
p464
I1
sVSocial democracy
p465
I1
sVfree love
p466
I1
sVNestor Makhno
p467
I1
sVMutualism (economic theory)
p468
I1
sVAnarchist St. Imier International
p469
I1
sVcensorship
p470
I1
sVDiggers
p471
I1
sVCommunist Party of Germany
p472
I1
sVWalter Crane
p473
I1
sVTolstoy
p474
I1
sVWoodcut
p475
I1
sVbiennio rosso
p476
I1
sVanti-clerical
p477
I1
sVGerman language
p478
I1
sVThe Humanist
p479
I1
sVLeague of Peace and Freedom
p480
I1
sVKronstadt rebellion
p481
I1
sVminarchism
p482
I1
sVhomosexuality
p483
I1
sVSquatting
p484
I1
sVStonewall Rebellion
p485
I1
sVspontaneous order
p486
I1
sVOranienburg concentration camp
p487
I1
sVanarcho-communism
p488
I1
sVFebruary Revolution
p489
I1
sVsocialism
p490
I1
sVnegative liberty
p491
I1
sVAnarchism in Italy
p492
I1
sVRojava
p493
I1
sVcounterculture
p494
I1
sVanarcho-communist
p495
I1
sVphilosophical anarchism
p496
I1
sVIn Our Time (BBC Radio 4)
p497
I1
sVInternational Libertarian Solidarity
p498
I1
sVhomosexual
p499
I1
sVIvan Illich
p500
I1
sVCounterculture of the 1960s
p501
I1
sVstrikebreaker
p502
I1
sVStoicism
p503
I1
sVdemocratic confederalism
p504
I1
sVpatriarchy
p505
I1
sVDwight Macdonald
p506
I1
sVApostle (Christian)
p507
I1
sVStephen Pearl Andrews
p508
I1
sVMelvyn Bragg
p509
I1
sVmarket (economics)
p510
I1
sVSummerhill School
p511
I1
sVpositive liberty
p512
I1
sVruling class
p513
I1
sVRenzo Novatore
p514
I1
sVWilliam Godwin
p515
I1
sVNazi concentration camps
p516
I1
sVHistory of Germany since 1945
p517
I1
sVSynthesist anarchism
p518
I1
sVNazi Party
p519
I1
sVAdolphe Thiers
p520
I1
sVHan Ryner
p521
I1
sVbirth control
p522
I1
sVFederation of Organized Trades and Labor Unions
p523
I1
sVtechnology
p524
I1
sVWorkers Solidarity Movement
p525
I1
sVEdmund Burke
p526
I1
sVHerbert Read
p527
I1
sVleft libertarianism
p528
I1
sVutilitarian
p529
I1
sVstate socialism
p530
I1
sVself-ownership
p531
I1
sVPejorative
p532
I1
sVThe Oxford Companion to Philosophy
p533
I1
sVMurray Bookchin
p534
I1
sVIndustrial Workers of the World
p535
I1
sVThe Dispossessed
p536
I1
sVHague Congress (1872)
p537
I1
sVStalinism
p538
I1
sVSaul Newman
p539
I1
sVReciprocity (cultural anthropology)
p540
I1
sVPolitical repression
p541
I1
sVBarcelona
p542
I1
sVThe False Principle of our Education
p543
I1
sVindividualist anarchism
p544
I1
sVSoviet Union
p545
I1
sVcounter-economics
p546
I1
sVRudolf Rocker
p547
I1
sVAnarchism and capitalism
p548
I1
sVThe New York Times
p549
I1
sVParma
p550
I1
sVBlack Rose Books
p551
I1
sVWilhelm Weitling
p552
I1
sVSlate.com
p553
I1
sVlesbian
p554
I1
sVunited front
p555
I1
sVLiberalism
p556
I1
sVcollectivism
p557
I1
sVDevelopment criticism
p558
I1
sVJohn Henry Mackay
p559
I1
sVCollectivist anarchism
p560
I1
sVWilliam Everard (Digger)
p561
I1
sVIllegalism
p562
I1
sVLaozi
p563
I1
sVMaximilien Robespierre
p564
I1
sVLoughborough University
p565
I1
sVChristiaan Cornelissen
p566
I1
sVSecond Spanish Republic
p567
I1
sVanarcho-syndicalism
p568
I1
sVAndalusia
p569
I1
sVThe Tyranny of Structurelessness
p570
I1
sVfeminism
p571
I1
sVRight-libertarianism
p572
I1
sVtrade union
p573
I1
sVdictatorship of the proletariat
p574
I1
sVMujeres Libres
p575
I1
sVVoltairine de Cleyre
p576
I1
sVPost-anarchism
p577
I1
sVparticipatory economics
p578
I1
sVSyncretic politics
p579
I1
sVdirect democracy
p580
I1
sVJean-Jacques Rousseau
p581
I1
sVHakim Bey
p582
I1
sVGreen anarchism
p583
I1
sVSurrealism
p584
I1
sVlabour unions
p585
I1
sVA. S. Neill
p586
I1
sVBonnot Gang
p587
I1
sVThe Russian Anarchists
p588
I1
sVAnti-capitalism
p589
I1
sVAnarcho-communism
p590
I1
sVRevolutionary Insurrectionary Army of Ukraine
p591
I1
sVLeon Czolgosz
p592
I1
sVenlightened self-interest
p593
I1
sVanarchism and violence
p594
I1
sVclass conflict
p595
I1
sVReification (fallacy)
p596
I1
sVlibertarian anarchism
p597
I1
sVBayerischer Rundfunk
p598
I1
sVGerrard Winstanley
p599
I1
sVlibertarian municipalism
p600
I1
sVMurray Rothbard
p601
I1
sVAndrej Grubacic
p602
I1
sVconservative
p603
I1
sVMy Disillusionment in Russia
p604
I1
sVLa Voz de la Mujer
p605
I1
sVAnarchism in France
p606
I1
sVLuigi Galleani
p607
I1
sVGeneral Confederation of Labour (France)
p608
I1
sVpenal colonies
p609
I1
sVLibertarian socialism
p610
I1
sVfederalist
p611
I1
sVCamillo Berneri
p612
I1
sVChristian anarchism
p613
I1
sVnudist
p614
I1
sVmutually exclusive
p615
I1
sVThe Kingdom of God is Within You
p616
I1
sVReich Ministry of Public Enlightenment and Propaganda
p617
I1
sVLibertarian socialist
p618
I1
sVNapoleon III of France
p619
I1
sVunschooling
p620
I1
sVLeo Tolstoy
p621
I1
sVM. E. Lazarus
p622
I1
sVBuddhist anarchism
p623
I1
sVideology
p624
I1
sVWilliam McKinley
p625
I1
sVAnarchism in Brazil
p626
I1
sVanarcho-primitivism
p627
I1
sVFrancesc Pi i Margall
p628
I1
sVLimited government
p629
I1
sVWill (philosophy)
p630
I1
sVleft-libertarianism
p631
I1
sVInternational Workers Association
p632
I1
sVAnarcho-capitalism
p633
I1
sVLois Waisbrooker
p634
I1
sVNew Left Review
p635
I1
sVsocial revolution
p636
I1
sVUnion of egoists
p637
I1
sVUnione Sindacale Italiana
p638
I1
sVLev Chernyi
p639
I1
sVAlex Comfort
p640
I1
sVPissarro
p641
I1
sVcollectivist anarchist
p642
I1
sV6 February 1934 crisis
p643
I1
sVEncarta
p644
I1
sVutopian
p645
I1
sVArgentine Libertarian Federation
p646
I1
sVLeft-wing market anarchism
p647
I1
sVantimilitarism
p648
I1
sVpostmodernism
p649
I1
sVAnarchist law
p650
I1
sVdefinitional concerns in anarchist theory
p651
I1
sVinfinitive
p652
I1
sVaffinity group
p653
I1
sVWorld Trade Organization Ministerial Conference of 1999 protest activity
p654
I1
sVJoseph Stalin
p655
I1
sVclass struggle
p656
I1
sVnonviolence
p657
I1
sVJohn Zerzan
p658
I1
sVpoststructuralist
p659
I1
sVNoam Chomsky
p660
I1
sVSecond Fitna
p661
I1
sVJulian Beck
p662
I1
sVDemocratic Federation of Northern Syria
p663
I1
sVPhiladelphes
p664
I1
sVcentralism
p665
I1
sVCold War
p666
I1
sVErrico Malatesta
p667
I1
sVSilvio Gesell
p668
I1
sVtyrannicide
p669
I1
sVvoluntary association
p670
I1
sVanti-globalisation movement
p671
I1
sVNew York Times
p672
I1
sVRobespierre
p673
I1
sVL. Susan Brown
p674
I1
sVanarcho-naturism
p675
I1
sVVice (magazine)
p676
I1
sVpersonal property
p677
I1
sVContemporary anarchism
p678
I1
sVRoundhead
p679
I1
sVThe Joy of Sex
p680
I1
sVCouncil communism
p681
I1
sVsocial ecology
p682
I1
sVNeopaganism
p683
I1
sVJohann Most
p684
I1
sVThe Haymarket Tragedy
p685
I1
sVtoleration
p686
I1
sVSituationist International
p687
I1
sVAlbert Camus
p688
I1
sVProtests of 1968
p689
I1
sVAlexander II of Russia
p690
I1
sVPeter Marshall (author)
p691
I1
sVFederazione Anarchica Italiana
p692
I1
sVProperty is theft
p693
I1
sVsquatter
p694
I1
sVlaw and economics
p695
I1
ssS'Animalia (book)'
p696
(dp697
S'butterfly'
p698
I1
sS'Animalia (TV series)'
p699
I1
sS'Picture books'
p700
I1
sS'iPod Touch'
p701
I1
sS'alligator'
p702
I1
sS'alphabet'
p703
I1
sS'iPad'
p704
I1
sS'Minimax (TV channel)'
p705
I1
sS'Graeme Base'
p706
I1
sS'ET1 (Greece)'
p707
I1
sS'Harcourt Brace Jovanovich'
p708
I1
sS'Abrams Books'
p709
I1
sS'Slovakia'
p710
I1
sS'colouring book'
p711
I1
sS'Greece'
p712
I1
sS'alliteration'
p713
I1
sS'iPhone'
p714
I1
sS'Venezuela'
p715
I1
sS'Czech Republic'
p716
I1
ssS'Academy Awards'
p717
(dp718
VESPN
p719
I1
sV3D-printed
p720
I1
sVAcademy Award for Best Sound Editing
p721
I1
sVAcademy Award for Best Original Song
p722
I1
sVThe Atlantic
p723
I1
sV79th_Academy_Awards
p724
I1
sVAmbassador Hotel (Los Angeles)
p725
I1
sVKate Linder
p726
I1
sVAcademy Award for Best Engineering Effects
p727
I1
sVTony Award
p728
I1
sV21st Century Fox
p729
I1
sV88th Academy Awards
p730
I1
sVJudith Hoag
p731
I1
sVChris Mulkey
p732
I1
sV8th Academy Awards
p733
I1
sVShrine Auditorium
p734
I1
sVEmmy Award
p735
I1
sVWinter Olympic Games
p736
I1
sVAcademy Award for Best Animated Feature
p737
I1
sVBlack tie
p738
I1
sVIndependent Spirit Awards
p739
I1
sVEntertainment Weekly
p740
I1
sVMoonlight (2016 film)
p741
I1
sVJohn A. Bonner Medal of Commendation
p742
I1
sVOrson Welles
p743
I1
sV78th_Academy_Awards
p744
I1
sV54th_Academy_Awards
p745
I1
sV82nd_Academy_Awards
p746
I1
sVFox News
p747
I1
sV35 mm film
p748
I1
sV63rd_Academy_Awards
p749
I1
sV75th_Academy_Awards
p750
I1
sV71st_Academy_Awards
p751
I1
sVAcademy Award for Best Actor
p752
I1
sVThe Last Command (1928 film)
p753
I1
sV76th_Academy_Awards
p754
I1
sV52nd_Academy_Awards
p755
I1
sVCBS News
p756
I1
sV2017 in film
p757
I1
sVSpecial Achievement Academy Award
p758
I1
sVAlaska
p759
I1
sV47th_Academy_Awards
p760
I1
sVThe Hollywood Reporter
p761
I1
sVTitanic (1997 film)
p762
I1
sVAcademy Award for Best Supporting Actress
p763
I1
sVJean Hersholt Humanitarian Award
p764
I1
sVCrash (2004 film)
p765
I1
sVAcademy Award for Best Film Editing
p766
I1
sV55th_Academy_Awards
p767
I1
sV38th Academy Awards
p768
I1
sV61st_Academy_Awards
p769
I1
sVVox (website)
p770
I1
sVinstant runoff voting
p771
I1
sVInternal Revenue Service
p772
I1
sVpopularity contest
p773
I1
sVGrammy Award
p774
I1
sVGet Out
p775
I1
sV68th_Academy_Awards
p776
I1
sVThe Shape of Water
p777
I1
sVCivil rights activist
p778
I1
sVGuillermo del Toro
p779
I1
sVGordon E. Sawyer Award
p780
I1
sVAcademy Juvenile Award
p781
I1
sV82nd Academy Awards
p782
I1
sV71st Academy Awards
p783
I1
sVMark Bridges (costume designer)
p784
I1
sVgeneric trademark
p785
I1
sVPacific Design Center
p786
I1
sVLos Angeles Times
p787
I1
sV80th Academy Awards
p788
I1
sVAcademy Award for Best Sound Mixing
p789
I1
sVEmil Jannings
p790
I1
sVAcademy Award for Best Dance Direction
p791
I1
sVTheWrap
p792
I1
sVAttempted assassination of Ronald Reagan
p793
I1
sV32nd Academy Awards
p794
I1
sVAcademy Award for Best Actress
p795
I1
sV53rd Academy Awards
p796
I1
sVNo Country for Old Men (film)
p797
I1
sVPhantom Thread
p798
I1
sV89th_Academy_Awards
p799
I1
sVNicholl Fellowships in Screenwriting
p800
I1
sVNew Century Theatre
p801
I1
sV70th_Academy_Awards
p802
I1
sVnews ticker
p803
I1
sVVariety (magazine)
p804
I1
sVTime (magazine)
p805
I1
sVThe Godfather
p806
I1
sVNew York City
p807
I1
sV56th Academy Awards
p808
I1
sV65th_Academy_Awards
p809
I1
sVGovernors Awards
p810
I1
sV59th_Academy_Awards
p811
I1
sVLos Angeles
p812
I1
sV57th_Academy_Awards
p813
I1
sVfilmsite.org
p814
I1
sVJohn Salley
p815
I1
sVElton John AIDS Foundation Academy Award Party
p816
I1
sVAcademy Award for Best Production Design
p817
I1
sVRolling Stone
p818
I1
sVThe Hurt Locker
p819
I1
sVAcademy Award for Best Cinematography
p820
I1
sV51st_Academy_Awards
p821
I1
sVSunset Tower
p822
I1
sV60th_Academy_Awards
p823
I1
sVNational Football League
p824
I1
sVStudent Academy Awards
p825
I1
sVGeorge Stanley (sculptor)
p826
I1
sVAcademy Award for Best Assistant Director
p827
I1
sVCedric Gibbons
p828
I1
sV76th Academy Awards
p829
I1
sVAcademy Scientific and Technical Award
p830
I1
sV72nd_Academy_Awards
p831
I1
sVbronze
p832
I1
sVFrances McDormand
p833
I1
sVOscar bait
p834
I1
sVAcademy Award for Best Makeup and Hairstyling
p835
I1
sV50th_Academy_Awards
p836
I1
sVjet ski
p837
I1
sVvideophone
p838
I1
sVAcademy Award for Best Title Writing
p839
I1
sVWilliam Friedkin
p840
I1
sVList of actors with Academy Award nominations
p841
I1
sV21st Academy Awards
p842
I1
sVJanet Gaynor
p843
I1
sVAmerican Broadcasting Company
p844
I1
sVAcademy Award for Best Story
p845
I1
sVBritannia metal
p846
I1
sV43rd Academy Awards
p847
I1
sV40th Academy Awards
p848
I1
sV81st_Academy_Awards
p849
I1
sVThe Way of All Flesh (1927 film)
p850
I1
sVL.A. Live
p851
I1
sVPacific Time Zone
p852
I1
sV77th_Academy_Awards
p853
I1
sVAllison Janney
p854
I1
sV42nd Academy Awards
p855
I1
sVNielsen ratings
p856
I1
sVAcademy Award for Best Original Screenplay
p857
I1
sV66th_Academy_Awards
p858
I1
sV69th_Academy_Awards
p859
I1
sVAssociated Press
p860
I1
sVThe Informer (1935 film)
p861
I1
sVMillennium Biltmore Hotel
p862
I1
sVPrice Waterhouse
p863
I1
sVIrving G. Thalberg Memorial Award
p864
I1
sV90th Academy Awards
p865
I1
sVHollywood Roosevelt Hotel
p866
I1
sVHarold Russell
p867
I1
sVMargaret Herrick
p868
I1
sVSacheen Littlefeather
p869
I1
sV25th Academy Awards
p870
I1
sVPassover
p871
I1
sVAssassination of Martin Luther King Jr.
p872
I1
sVCitizen Kane
p873
I1
sVCalifornia
p874
I1
sVAcademy Award for Best Supporting Actor
p875
I1
sVWalt Disney
p876
I1
sVNBC
p877
I1
sVList of film awards
p878
I1
sVPantages Theatre (Hollywood)
p879
I1
sVAcademy Honorary Award
p880
I1
sVAcademy of Motion Picture Arts and Sciences
p881
I1
sVDorothy Chandler Pavilion
p882
I1
sVGary Oldman
p883
I1
sV81st Academy Awards
p884
I1
sVMarlon Brando
p885
I1
sVIndigenous peoples of the Americas
p886
I1
sV56th_Academy_Awards
p887
I1
sVEmmy Awards
p888
I1
sVChicago Sun-Times
p889
I1
sVSouthern Illinois University Press
p890
I1
sVEastern Time Zone
p891
I1
sV73rd_Academy_Awards
p892
I1
sV6th Academy Awards
p893
I1
sVNBA
p894
I1
sVSan Fernando Valley
p895
I1
sV49th_Academy_Awards
p896
I1
sV58th_Academy_Awards
p897
I1
sVHollywood Bowl
p898
I1
sVprogressive scan
p899
I1
sVGeorge C. Scott
p900
I1
sVMidnight Cowboy
p901
I1
sVMotion Picture and Television Fund
p902
I1
sVsweeps
p903
I1
sVbow-tie
p904
I1
sVPricewaterhouseCoopers
p905
I1
sV70th Academy Awards
p906
I1
sVAcademy Award for Best Costume Design
p907
I1
sVAcademy Award for Best Documentary (Short Subject)
p908
I1
sVDarkest Hour (film)
p909
I1
sVArt Deco
p910
I1
sVAcademy Award for Best Animated Short Film
p911
I1
sVSam Rockwell
p912
I1
sVAcademy Award for Best Picture
p913
I1
sVItalian language
p914
I1
sV45th Academy Awards
p915
I1
sVAcademy Award for Best Live Action Short Film
p916
I1
sV86th_Academy_Awards
p917
I1
sV1st Academy Awards
p918
I1
sVLos Angeles Music Center
p919
I1
sVplurality voting
p920
I1
sVJimmy Kimmel
p921
I1
sV62nd_Academy_Awards
p922
I1
sVEaster
p923
I1
sVRonald Reagan
p924
I1
sV48th_Academy_Awards
p925
I1
sVSanta Monica Civic Auditorium
p926
I1
sV80th_Academy_Awards
p927
I1
sVrange voting
p928
I1
sVAcademy Award for Technical Achievement
p929
I1
sV67th_Academy_Awards
p930
I1
sVMelrose Avenue
p931
I1
sVVince Lombardi Trophy
p932
I1
sVAcademy Award for Best Original Score
p933
I1
sV74th_Academy_Awards
p934
I1
sVUnited States dollar
p935
I1
sV83rd_Academy_Awards
p936
I1
sV48th Academy Awards
p937
I1
sVAcademy Award for Best Visual Effects
p938
I1
sVWilshire Boulevard
p939
I1
sV49th Academy Awards
p940
I1
sVBette Davis
p941
I1
sV84th_Academy_Awards
p942
I1
sVDudley Nichols
p943
I1
sV64th_Academy_Awards
p944
I1
sVDolby Theatre
p945
I1
sV46th_Academy_Awards
p946
I1
sVCarolyn Hennesy
p947
I1
sVsingle transferable vote
p948
I1
sVHawaii
p949
I1
sVScientific and Engineering Award
p950
I1
sV78th Academy Awards
p951
I1
sVOscar speech
p952
I1
sVAcademy Award for Best Documentary Feature
p953
I1
sVJordan Peele
p954
I1
sV70 mm film
p955
I1
sVOscar season
p956
I1
sVAcademy Award for Best Adapted Screenplay
p957
I1
sVFor Your Consideration (advertising)
p958
I1
sVPatton (film)
p959
I1
sVBeverly Hills Hotel
p960
I1
sVMajestic Theatre (Columbus Circle)
p961
I1
sV53rd_Academy_Awards
p962
I1
sV89th Academy Awards
p963
I1
sVAcademy Award for Best Director
p964
I1
sVThe Best Years of Our Lives
p965
I1
sVAcademy Award for Best Unique and Artistic Production
p966
I1
sV85th_Academy_Awards
p967
I1
sV87th_Academy_Awards
p968
I1
sV88th_Academy_Awards
p969
I1
sVAcademy Award for Best Foreign Language Film
p970
I1
sVdigital cinema
p971
I1
ssS'Abraham Lincoln'
p972
(dp973
VKansas-Nebraska Act
p974
I1
sVKnow Nothing
p975
I1
sVOur American Cousin
p976
I1
sVBorder States (American Civil War)
p977
I1
sVShenandoah Valley
p978
I1
sVSupreme Court of the United States
p979
I1
sVPrivate (United States)
p980
I1
sVIndiana
p981
I1
sVMoses
p982
I1
sVAppomattox Court House National Historical Park
p983
I1
sVNorman B. Judd
p984
I1
sVGettysburg Campaign
p985
I1
sVBattle of Antietam
p986
I1
sVMason-Dixon line
p987
I1
sVTad Lincoln
p988
I1
sVtotal war
p989
I1
sVJohn Bell (Tennessee politician)
p990
I1
sVCooper Union speech
p991
I1
sVCharles Sumner
p992
I1
sVDaniel Defoe
p993
I1
sVUnited States Navy
p994
I1
sVUnited States district courts
p995
I1
sVWade-Davis Bill
p996
I1
sVMark Noll
p997
I1
sVRobert E. Lee
p998
I1
sVThe Autobiography of Benjamin Franklin
p999
I1
sVHannibal Hamlin
p1000
I1
sVMason Locke Weems
p1001
I1
sVTheodore Roosevelt
p1002
I1
sVLerone Bennett Jr.
p1003
I1
sVBattle of Chancellorsville
p1004
I1
sVDavid Hunter
p1005
I1
sVSupreme Court of Illinois
p1006
I1
sVAssassination of Abraham Lincoln
p1007
I1
sVJohn C. Breckinridge
p1008
I1
sVNoah Brooks
p1009
I1
sVBureau of Engraving and Printing
p1010
I1
sVDred Scott
p1011
I1
sVHugh McCulloch
p1012
I1
sVWilliam P. Fessenden
p1013
I1
sVLincoln Tomb
p1014
I1
sVNew York World
p1015
I1
sVAdmission to the bar in the United States
p1016
I1
sVThomas Lincoln
p1017
I1
sVUnited States Capitol rotunda
p1018
I1
sVCrittenden Compromise
p1019
I1
sVThe Journal of Commerce
p1020
I1
sVabolitionism in the United States
p1021
I1
sViconoclasm
p1022
I1
sVU.S. House of Representatives
p1023
I1
sVEmancipation Proclamation
p1024
I1
sVlist of United States Representatives from Illinois
p1025
I1
sVIllinois Central Railroad
p1026
I1
sVmucosal neuromata with endocrine tumors
p1027
I1
sVSalmon Portland Chase
p1028
I1
sVSecond Battle of Fredericksburg
p1029
I1
sVMarfan syndrome
p1030
I1
sVMissouri Compromise
p1031
I1
sVGrace Bedell
p1032
I1
sVList of photographs of Abraham Lincoln
p1033
I1
sVThe Towers (Ohio State)
p1034
I1
sVShapell Manuscript Foundation
p1035
I1
sVWilliam Herndon (lawyer)
p1036
I1
sVWilliam Tecumseh Sherman
p1037
I1
sVStephen T. Logan
p1038
I1
sVMount Rushmore
p1039
I1
sVBattle of Fort Sumter
p1040
I1
sVSalmon P. Chase
p1041
I1
sVFirst Battle of Bull Run
p1042
I1
sVBattle of Hampton Roads
p1043
I1
sVlist of United States Republican Party presidential tickets
p1044
I1
sVNevada
p1045
I1
sVGeorge B. McClellan
p1046
I1
sVAndrew Johnson
p1047
I1
sVJohn Bunyan
p1048
I1
sVGeorge Meade
p1049
I1
sVHomestead Act
p1050
I1
sVPotomac River
p1051
I1
sVHampton Roads Conference
p1052
I1
sVWard Hill Lamon
p1053
I1
sVFounding Fathers of the United States
p1054
I1
sVDemocratic Party (United States)
p1055
I1
sVSenate Foreign Relations Committee
p1056
I1
sVflatboat
p1057
I1
sVUnited States Electoral College
p1058
I1
sVJohn Pope (military officer)
p1059
I1
sVFirst Transcontinental Railroad
p1060
I1
sVJohn T. Stuart
p1061
I1
sVLincoln Log Cabin State Historic Site
p1062
I1
sVPacific Railway Acts
p1063
I1
sVWilliam Dennison Jr.
p1064
I1
sVConfiscation Act of 1862
p1065
I1
sVRichard Current
p1066
I1
sVNational Mall
p1067
I1
sVhistory of depression
p1068
I1
sVTennessee
p1069
I1
sVcompensated emancipation
p1070
I1
sVWilliam Rosecrans
p1071
I1
sVNew Deal
p1072
I1
sVAmerican Colonization Society
p1073
I1
sVHenry Halleck
p1074
I1
sVIllinois
p1075
I1
sVConscription
p1076
I1
sVArmy of the Potomac
p1077
I1
sVWilliam Wallace Lincoln
p1078
I1
sVCopperhead (politics)
p1079
I1
sVElectoral fusion
p1080
I1
sVWalt Disney World
p1081
I1
sVLorenzo Thomas
p1082
I1
sVSangamon River
p1083
I1
sVJohn Merryman
p1084
I1
sVWalt Whitman
p1085
I1
sVMary Todd Lincoln
p1086
I1
sVNancy Lincoln
p1087
I1
sVJoseph Hooker
p1088
I1
sVBattle of Cold Harbor
p1089
I1
sVslavery
p1090
I1
sVConfederate States of America
p1091
I1
sVLincoln-Herndon Law Offices State Historic Site
p1092
I1
sVEric Foner
p1093
I1
sVlying in state
p1094
I1
sVUlysses S. Grant
p1095
I1
sVRappahannock River
p1096
I1
sVDred Scott v. Sandford
p1097
I1
sVIllinois Republican Party
p1098
I1
sVBenjamin Wade
p1099
I1
sVJohn Locke
p1100
I1
sVFree Soil Party
p1101
I1
sVProgressive Era
p1102
I1
sVUnited States circuit court
p1103
I1
sVNational Union Party (United States)
p1104
I1
sVUnited States Secretary of War
p1105
I1
sVWilliam Dayton
p1106
I1
sVDavid Farragut
p1107
I1
sVChief Justice of the United States
p1108
I1
sVCaleb Blood Smith
p1109
I1
sVWilliam H. Seward
p1110
I1
sVUnited States
p1111
I1
sVPeace Conference of 1861
p1112
I1
sVFranklin Delano Roosevelt
p1113
I1
sVAlexander H. Stephens
p1114
I1
sVpatronage
p1115
I1
sVperfidy
p1116
I1
sVSamuel Lincoln
p1117
I1
sVOliver Wendell Holmes Jr.
p1118
I1
sVU.S. Capitol Building
p1119
I1
sVHoly Land
p1120
I1
sVCompromise of 1850
p1121
I1
sVThe Slave Power
p1122
I1
sVBoston Corbett
p1123
I1
sVLeonard Swett
p1124
I1
sVSexuality of Abraham Lincoln
p1125
I1
sVElectoral College (United States)
p1126
I1
sVGettysburg Address
p1127
I1
sVDoctrine of Necessity
p1128
I1
sVall men are created equal
p1129
I1
sVConfiscation Act of 1861
p1130
I1
sVThaddeus Stevens
p1131
I1
sVLyman Trumbull
p1132
I1
sVGideon Welles
p1133
I1
sVAllan Nevins
p1134
I1
sVJohn Henry (representative)
p1135
I1
sVPenny (United States coin)
p1136
I1
sVDisneyland
p1137
I1
sVSpot Resolutions
p1138
I1
sVClara Harris
p1139
I1
sVOhio River
p1140
I1
sVBattle of the Wilderness
p1141
I1
sVUnited States Capitol dome
p1142
I1
sVArmy of Virginia
p1143
I1
sVUnion blockade
p1144
I1
sVThirteenth Amendment to the United States Constitution
p1145
I1
sVPhilip Sheridan
p1146
I1
sVAntoine-Henri Jomini
p1147
I1
sVmedullary thyroid carcinoma
p1148
I1
sVNoah Haynes Swayne
p1149
I1
sVCommentaries on the Laws of England
p1150
I1
sVAnn Rutledge
p1151
I1
sVmartial law
p1152
I1
sVSiege of Petersburg
p1153
I1
sVjudicial notice
p1154
I1
sVPeninsula Campaign
p1155
I1
sVGreat Moments with Mr. Lincoln
p1156
I1
sVKing James Version
p1157
I1
sVSarah Lincoln Grigsby
p1158
I1
sVThomas L. Harris
p1159
I1
sVBlack Hawk War
p1160
I1
sVmajor depressive disorder
p1161
I1
sVVirginia
p1162
I1
sVFrancis Bicknell Carpenter
p1163
I1
sV1860 Republican National Convention
p1164
I1
sVevangelicalism
p1165
I1
sVCorwin Amendment
p1166
I1
sVWhig Party (United States)
p1167
I1
sVKentucky
p1168
I1
sVTeam of Rivals
p1169
I1
sVNew York City draft riots
p1170
I1
sVStephen A. Douglas
p1171
I1
sVJubal Early
p1172
I1
sVAmerican frontier
p1173
I1
sVLincoln Boyhood National Memorial
p1174
I1
sVDavid Dixon Porter
p1175
I1
sVLittle Pigeon Creek Community
p1176
I1
sVIllinois and Michigan Canal
p1177
I1
sVRoger B. Taney
p1178
I1
sVMorrill Tariff
p1179
I1
sVWilliam Fessenden
p1180
I1
sVEx parte Merryman
p1181
I1
sVArmy of the Ohio
p1182
I1
sVAlexander Campbell (clergyman)
p1183
I1
sVGeneral Land Office
p1184
I1
sVTimothy Cole
p1185
I1
sVLiberia
p1186
I1
sVC. Vann Woodward
p1187
I1
sVRobert Todd Lincoln
p1188
I1
sVC-SPAN
p1189
I1
sVSlave Power
p1190
I1
sVnegative capability
p1191
I1
sVNew Jersey
p1192
I1
sVAllan Pinkerton
p1193
I1
sVassassination of Abraham Lincoln
p1194
I1
sVVicksburg campaign
p1195
I1
sVAbraham Lincoln (Healy)
p1196
I1
sVAllen C. Guelzo
p1197
I1
sVMorrill Land-Grant Colleges Act
p1198
I1
sVHenry Clay
p1199
I1
sVRobinson Crusoe
p1200
I1
sVWilmot Proviso
p1201
I1
sVJoshua R. Giddings
p1202
I1
sVWest Virginia
p1203
I1
sVDavid Herbert Donald
p1204
I1
sVAbraham Lincoln Birthplace National Historical Park
p1205
I1
sVCharles Keck
p1206
I1
sVConstitutional Union Party (United States)
p1207
I1
sVslave state
p1208
I1
sVKnob Creek Farm
p1209
I1
sVReconstruction Era of the United States
p1210
I1
sVStephen Johnson Field
p1211
I1
sVaortic regurgitation
p1212
I1
sVMillard Fillmore
p1213
I1
sVJames River
p1214
I1
sVUnited States Department of Agriculture
p1215
I1
sVSamuel Freeman Miller
p1216
I1
sVEdward Bates
p1217
I1
sVstillborn
p1218
I1
sVJohn Palmer Usher
p1219
I1
sVEdwin Stanton
p1220
I1
sVHorace Greeley
p1221
I1
sVMark E. Neely Jr.
p1222
I1
sVfreedmen
p1223
I1
sVWilliam Henry Bissell
p1224
I1
sVmilk sickness
p1225
I1
sVDon Carlos Buell
p1226
I1
sVMel Bradford
p1227
I1
sVPennsylvania
p1228
I1
sVJohn J. Hardin
p1229
I1
sVSeparate Baptists
p1230
I1
sVRevenue Act of 1862
p1231
I1
sVRevenue Act of 1861
p1232
I1
sVDepartment of the West
p1233
I1
sV1856 Republican National Convention
p1234
I1
sVOutline of Abraham Lincoln
p1235
I1
sVIllinois House of Representatives
p1236
I1
sVJohn Keats
p1237
I1
sVtyphoid fever
p1238
I1
sVFrederick Steele
p1239
I1
sVJames Madison
p1240
I1
sVEdmund Burke
p1241
I1
sVAmbrose Burnside
p1242
I1
sV1860 Democratic National Convention
p1243
I1
sVUnited States House of Representatives
p1244
I1
sVJustin Butterfield
p1245
I1
sVThe Peacemakers
p1246
I1
sVJames K. Polk
p1247
I1
sVEdwin M. Stanton
p1248
I1
sVZachary Taylor
p1249
I1
sVDakota War of 1862
p1250
I1
sVNorthwest Indian War
p1251
I1
sVAbraham Lincoln Presidential Library and Museum
p1252
I1
sVWhite House
p1253
I1
sVBattle of Gettysburg
p1254
I1
sVCaptain (US Army)
p1255
I1
sVAmerican Civil War
p1256
I1
sVNancy Hanks Lincoln
p1257
I1
sVOak Ridge Cemetery
p1258
I1
sVhistory of the United States Republican Party
p1259
I1
sVNebraska Territory
p1260
I1
sVhabeas corpus
p1261
I1
sVcourt-martial
p1262
I1
sVBaltimore Plot
p1263
I1
sVYosemite National Park
p1264
I1
sVRadical Republican
p1265
I1
sVLincoln Home National Historic Site
p1266
I1
sVJames G. Randall
p1267
I1
sVBarack Obama
p1268
I1
sVWilliam Blackstone
p1269
I1
sVHall of Presidents
p1270
I1
sVLecompton Constitution
p1271
I1
sVFort Sumter
p1272
I1
sVPetersen House
p1273
I1
sVRiver Queen (steamboat)
p1274
I1
sVhistorical rankings of Presidents of the United States
p1275
I1
sVList of Presidents of the United States
p1276
I1
sVLincoln Memorial
p1277
I1
sVWide Awakes
p1278
I1
sVConservatism in the United States
p1279
I1
sVJames Speed
p1280
I1
sVJoel Aldrich Matteson
p1281
I1
sVNational Banking Act
p1282
I1
sVJacksonian Democracy
p1283
I1
sVHenry Rathbone
p1284
I1
sVRobert Anderson (Civil War)
p1285
I1
sVJohn Wilkes Booth
p1286
I1
sVList of civil rights leaders
p1287
I1
sVTrent Affair
p1288
I1
sVraconteur
p1289
I1
sVNational Endowment for the Humanities
p1290
I1
sVRepublican Party (United States)
p1291
I1
sVlist of photographs of Abraham Lincoln
p1292
I1
sVBleeding Kansas
p1293
I1
sVattrition warfare
p1294
I1
sVAbraham Lincoln (captain)
p1295
I1
sVUnited States War Department
p1296
I1
sVmarfanoid
p1297
I1
sVBattle of Shiloh
p1298
I1
sVSecond Battle of Bull Run
p1299
I1
sVWalt Disney
p1300
I1
sVIllinois General Assembly
p1301
I1
sVJames Buchanan
p1302
I1
sVKansas Territory
p1303
I1
sVGeorge Peter Alexander Healy
p1304
I1
sVRobert Todd Lincoln Beckwith
p1305
I1
sVUnited States Declaration of Independence
p1306
I1
sVHurd v. Rock Island Bridge Company
p1307
I1
sVWinfield Scott
p1308
I1
sVreligious skepticism
p1309
I1
sVDavid Davis (Supreme Court justice)
p1310
I1
sVWoodrow Wilson
p1311
I1
sVFreeport Doctrine
p1312
I1
sVOregon Territory
p1313
I1
sVrepublicanism in the United States
p1314
I1
sVTen percent plan
p1315
I1
sVBloomington Convention
p1316
I1
sVCold War
p1317
I1
sVWar Democrats
p1318
I1
sVThe University of North Carolina Press
p1319
I1
sVOverland Campaign
p1320
I1
sVCharles Leale
p1321
I1
sVcommander-in-chief
p1322
I1
sVSimon Cameron
p1323
I1
sVBattle of Five Forks
p1324
I1
sVex parte Merryman
p1325
I1
sVinternal improvements
p1326
I1
sVEdward Baker Lincoln
p1327
I1
sVUnited States currency
p1328
I1
sVmultiple endocrine neoplasia type 2b
p1329
I1
sVFirst Reading of the Emancipation Proclamation of President Lincoln
p1330
I1
sVMontgomery Blair
p1331
I1
sVNathaniel P. Banks
p1332
I1
sVFrederick Douglass
p1333
I1
sVThanksgiving (United States)
p1334
I1
sVBaltimore riot of 1861
p1335
I1
sVDenton Offutt
p1336
I1
sVBattle of Fredericksburg
p1337
I1
sVJefferson Davis
p1338
I1
sVUnion (American Civil War)
p1339
I1
ssS'Ayn Rand'
p1340
(dp1341
VNick Gaetano
p1342
I1
sVAltruism (ethics)
p1343
I1
sVmeta-ethical
p1344
I1
sVNabokov house
p1345
I1
sVcollectivism
p1346
I1
sVCyrillic
p1347
I1
sVThe Fountainhead (film)
p1348
I1
sVEdmond Rostand
p1349
I1
sVfree markets
p1350
I1
sVPermanent residence (United States)
p1351
I1
sVJohn Hospers
p1352
I1
sVVictor Hugo
p1353
I1
sVIra Levin
p1354
I1
sVPola Negri
p1355
I1
sVBook-of-the-Month Club
p1356
I1
sVconservative
p1357
I1
sVUniversity of Pittsburgh Press
p1358
I1
sVC-SPAN
p1359
I1
sVThe God of the Machine
p1360
I1
sVCato Unbound
p1361
I1
sVUniversity of North Carolina at Chapel Hill
p1362
I1
sVcommunism
p1363
I1
sVFriedrich Schiller
p1364
I1
sVTekhnikum
p1365
I1
sVMark Cuban
p1366
I1
sVTara Smith (philosopher)
p1367
I1
sVSocial Security (United States)
p1368
I1
sVPlato
p1369
I1
sVHoward Roark
p1370
I1
sVAgence France-Presse
p1371
I1
sVpeer-reviewed journal
p1372
I1
sVanti-communist
p1373
I1
sVKrause Publications
p1374
I1
sVMichael Huemer
p1375
I1
sVWe the Living (film)
p1376
I1
sVdraft dodgers
p1377
I1
sVaxiom
p1378
I1
sVMotion Picture Alliance for the Preservation of American Ideals
p1379
I1
sVFebruary Revolution
p1380
I1
sVThe Night of January 16th (film)
p1381
I1
sVGQ
p1382
I1
sVDavid Hume
p1383
I1
sVMother Jones (magazine)
p1384
I1
sVLibertarianism
p1385
I1
sVJohn A. Allison IV
p1386
I1
sVThe King of Kings (1927 film)
p1387
I1
sVclassical liberals
p1388
I1
sVErika Holzer
p1389
I1
sVclassical liberalism
p1390
I1
sVromantic realism
p1391
I1
sVImmanuel Kant
p1392
I1
sVsubjectivism
p1393
I1
sVBolshevik
p1394
I1
sVrepublicanism
p1395
I1
sVBroadway theatre
p1396
I1
sVNew American Library
p1397
I1
sVE. P. Dutton
p1398
I1
sVindividual rights
p1399
I1
sVKay Nolte Smith
p1400
I1
sVThe Passion of Ayn Rand (book)
p1401
I1
sVIntroduction to Objectivist Epistemology
p1402
I1
sVJiji Press
p1403
I1
sVdictatorship
p1404
I1
sVEdwin A. Locke
p1405
I1
sVReason (magazine)
p1406
I1
sVNathaniel Branden
p1407
I1
sVstatism
p1408
I1
sVconstitutional monarchy
p1409
I1
sVJohn Locke
p1410
I1
sVNathaniel Branden Institute
p1411
I1
sVpro-choice
p1412
I1
sVpolitical philosophy
p1413
I1
sVSteve Ditko
p1414
I1
sVChronicle of Higher Education
p1415
I1
sVFriedrich Hayek
p1416
I1
sVAristotle
p1417
I1
sVIsabel Paterson
p1418
I1
sVRomance novel
p1419
I1
sVThe Literary Encyclopedia (English)
p1420
I1
sVAlex Chadwick
p1421
I1
sVDoctor of Humane Letters
p1422
I1
sVneo-Romanticism
p1423
I1
sVJapan Times
p1424
I1
sVLeonard Peikoff
p1425
I1
sVVietnam War
p1426
I1
sVThe Nation
p1427
I1
sVCato Institute
p1428
I1
sVLove Letters (1945 film)
p1429
I1
sVVladimir Nabokov
p1430
I1
sVGarry Wills
p1431
I1
sVBenzedrine
p1432
I1
sVpseudo-philosophy
p1433
I1
sVtheocracy
p1434
I1
sVRational egoism
p1435
I1
sVAino (given name)
p1436
I1
sVnovelist
p1437
I1
sVThe Voice of Reason (book)
p1438
I1
sVL. Neil Smith
p1439
I1
sVAllan Gotthelf
p1440
I1
sVDavid Nolan (libertarian)
p1441
I1
sVpolitical left
p1442
I1
sVAyn Rand and the World She Made
p1443
I1
sVheart failure
p1444
I1
sVThe New York Times Book Review
p1445
I1
sVObjectivist movement
p1446
I1
sVMassachusetts Institute of Technology
p1447
I1
sVHenry Hazlitt
p1448
I1
sVTea Party protests
p1449
I1
sVEsquire (magazine)
p1450
I1
sVHarvard
p1451
I1
sVJournals of Ayn Rand
p1452
I1
sVHal B. Wallis
p1453
I1
sVJohn David Lewis
p1454
I1
sVsystematic philosophy
p1455
I1
sVModern Library
p1456
I1
sVRed Pawn
p1457
I1
sVObjectivism (Ayn Rand)
p1458
I1
sVThe Journal of Ayn Rand Studies
p1459
I1
sVYom Kippur War
p1460
I1
sVOn Ayn Rand
p1461
I1
sVFamous Fantastic Mysteries
p1462
I1
sVRutland Herald
p1463
I1
sVUnited States Congress
p1464
I1
sVFor the New Intellectual
p1465
I1
sVEdward Rothstein
p1466
I1
sVmagnum opus
p1467
I1
sVSoviet Russia
p1468
I1
sVreason
p1469
I1
sVAtlas Shrugged
p1470
I1
sVcult
p1471
I1
sVWarner Bros.
p1472
I1
sVThe American Adventure (Epcot)
p1473
I1
sVSidney Hook
p1474
I1
sVknowledge
p1475
I1
sVConservatism in the United States
p1476
I1
sVJohn P. Mackey
p1477
I1
sVanarchism
p1478
I1
sVVladimir Lenin
p1479
I1
sVAmerican Philosophical Association
p1480
I1
sVStanford Encyclopedia of Philosophy
p1481
I1
sVObjectivist periodicals
p1482
I1
sVThe Virtue of Selfishness
p1483
I1
sVBroadway theater
p1484
I1
sVThe Atlas Society
p1485
I1
sVH. L. Mencken
p1486
I1
sVEpcot
p1487
I1
sVBrian Doherty (journalist)
p1488
I1
sVbestseller
p1489
I1
sVRush (band)
p1490
I1
sVFyodor Dostoevsky
p1491
I1
sVCrimean Peninsula
p1492
I1
sVThe Romantic Manifesto
p1493
I1
sVAmerican libertarianism
p1494
I1
sVCambridge University Press
p1495
I1
sVThe Objectivist
p1496
I1
sVPhilosophy
p1497
I1
sVPrivate property
p1498
I1
sVHouse Un-American Activities Committee
p1499
I1
sVwelfare state
p1500
I1
sVYou Came Along
p1501
I1
sVhomosexuality
p1502
I1
sVRepublican Party (United States)
p1503
I1
sVpundits
p1504
I1
sVThe Herald (Glasgow)
p1505
I1
sVMimi Reisel Gladstein
p1506
I1
sVReagan administration
p1507
I1
sVThe Guardian
p1508
I1
sVethics
p1509
I1
sVThe Chronicle of Higher Education
p1510
I1
sVepistemology
p1511
I1
sVRoutledge Encyclopedia of Philosophy
p1512
I1
sVReligion in the Soviet Union
p1513
I1
sVphilosophical realism
p1514
I1
sVMystery (fiction)
p1515
I1
sVtotalitarian
p1516
I1
sVThe Personalist
p1517
I1
sVKensico Cemetery
p1518
I1
sVHonorary degree
p1519
I1
sVVisa (document)
p1520
I1
sVSong of Russia
p1521
I1
sVutopian
p1522
I1
sVJim Powell (historian)
p1523
I1
sVcomic book
p1524
I1
sVNeil Peart
p1525
I1
sVColumbia University
p1526
I1
sVFord Hall Forum
p1527
I1
sVhistory of philosophy
p1528
I1
sVTerry Goodkind
p1529
I1
sVBible
p1530
I1
sVIdeal (novel)
p1531
I1
sVIndigenous peoples of the Americas
p1532
I1
sVExtra (drama)
p1533
I1
sVTsar
p1534
I1
sVdystopia
p1535
I1
sVJohn Galt
p1536
I1
sVPrinceton University
p1537
I1
sVayin
p1538
I1
sVComcast Spectacor
p1539
I1
sVRussian Civil War
p1540
I1
sVAcademy Awards
p1541
I1
sVRose Wilder Lane
p1542
I1
sVright-wing politics
p1543
I1
sVNick Gillespie
p1544
I1
sVRussian Empire
p1545
I1
sVBarry Goldwater
p1546
I1
sVscience fiction
p1547
I1
sVFriedrich Nietzsche
p1548
I1
sVdemocratic socialism
p1549
I1
sVChris Matthew Sciabarra
p1550
I1
sVPetrograd State University
p1551
I1
sVsocial pedagogy
p1552
I1
sVJournal of Ayn Rand Studies
p1553
I1
sVParamount Pictures
p1554
I1
sVA priori and a posteriori
p1555
I1
sVUniversity of Pittsburgh
p1556
I1
sVMedicare (United States)
p1557
I1
sVClemson University
p1558
I1
sVStrike action
p1559
I1
sVAyn Rand Institute
p1560
I1
sVaesthetics
p1561
I1
sVLudwig von Mises
p1562
I1
sVChicago
p1563
I1
sVThomas Aquinas
p1564
I1
sVThe New York Times
p1565
I1
sVAmerican Writers Association
p1566
I1
sVromanticism
p1567
I1
sVGore Vidal
p1568
I1
sVis-ought problem
p1569
I1
sVSaint Petersburg
p1570
I1
sVCecil B. DeMille
p1571
I1
sVinitiation of force
p1572
I1
sVlibertarian
p1573
I1
sVNicholas II
p1574
I1
sVMike Wallace
p1575
I1
sVLibertarian Party (United States)
p1576
I1
sVManhattan
p1577
I1
sVUniversity of Texas at Austin
p1578
I1
sVFederal Reserve Chairman
p1579
I1
sVIsrael
p1580
I1
sVFrederic Bastiat
p1581
I1
sVM. Stanton Evans
p1582
I1
sVGeorge Reisman
p1583
I1
sVThe Passion of Ayn Rand (film)
p1584
I1
sVHarry Binswanger
p1585
I1
sVLetters of Ayn Rand
p1586
I1
sVLeft Behind
p1587
I1
sVmetaphysics
p1588
I1
sVethical egoism
p1589
I1
sVNational Review
p1590
I1
sVWhole Foods
p1591
I1
sVThe Fountainhead
p1592
I1
sVfree will
p1593
I1
sVDallas Mavericks
p1594
I1
sVRKO
p1595
I1
sVEd Snider
p1596
I1
sVmilitary draft
p1597
I1
sVLibrary of Congress
p1598
I1
sVDouglas B. Rasmussen
p1599
I1
sVLingua Franca (magazine)
p1600
I1
sVWe the Living
p1601
I1
sVThe Best Years of Our Lives
p1602
I1
sVOctober Revolution
p1603
I1
sVAustrian School
p1604
I1
sVThe Passion of Ayn Rand
p1605
I1
sVAnthem (novella)
p1606
I1
sVRobert Nozick
p1607
I1
sVdiploma
p1608
I1
sVAlan Greenspan
p1609
I1
sVBobbs-Merrill Company
p1610
I1
sVfascism
p1611
I1
sVBarbara Branden
p1612
I1
sVPrometheus Award
p1613
I1
sVDuke University
p1614
I1
sVJohn Chamberlain (journalist)
p1615
I1
sVYale
p1616
I1
sVabsolute monarchy
p1617
I1
sVNight of January 16th
p1618
I1
sVSecond Red Scare
p1619
I1
sVamphetamine
p1620
I1
sVAcademy Award for Best Documentary Feature
p1621
I1
sVbourgeois
p1622
I1
sVSoviet Union
p1623
I1
sVUniversal Studios
p1624
I1
sVDavid Kelley
p1625
I1
sVWhite Army
p1626
I1
sVFinnish language
p1627
I1
sVdystopian
p1628
I1
sVE. E. Clive
p1629
I1
sVatheist
p1630
I1
sVlaissez-faire
p1631
I1
sVnewsreels
p1632
I1
sVWhittaker Chambers
p1633
I1
sVcapitalism
p1634
I1
sVCharles Murray (political scientist)
p1635
I1
sVWendell Willkie
p1636
I1
sVAquinas
p1637
I1
sVAlexander Kerensky
p1638
I1
sVHebrew
p1639
I1
sVNazism
p1640
I1
sVlung cancer
p1641
I1
sVPostage stamps and postal history of the United States
p1642
I1
sVEuropean colonization of the Americas
p1643
I1
ssS'Albedo'
p1644
(dp1645
Vfeedback
p1646
I1
sVphotovoltaic system
p1647
I1
sVconiferous trees
p1648
I1
sVsolar zenith angle
p1649
I1
sVMoon
p1650
I1
sVgeometric albedo
p1651
I1
sVOpposition surge
p1652
I1
sVdimensionless number
p1653
I1
sVevapotranspiration
p1654
I1
sVPolar see-saw
p1655
I1
sVMODIS
p1656
I1
sVJohann Heinrich Lambert
p1657
I1
sVHadley Centre
p1658
I1
sVasteroid belt
p1659
I1
sVcarbon sequestration
p1660
I1
sVsolar radiation
p1661
I1
sVorganic compound
p1662
I1
sVcontrail
p1663
I1
sVelectrical energy
p1664
I1
sVDaisyworld
p1665
I1
sVcloud condensation nuclei
p1666
I1
sVSahara Desert
p1667
I1
sVEmissivity
p1668
I1
sVIrradiance
p1669
I1
sVspecular reflection
p1670
I1
sVvisible spectrum
p1671
I1
sVdirectional-hemispherical reflectance
p1672
I1
sVpositive feedback
p1673
I1
sVNational Geographic (magazine)
p1674
I1
sVblack body
p1675
I1
sVTropical
p1676
I1
sVblack carbon
p1677
I1
sVDirectional-hemispherical reflectance
p1678
I1
sVangle of incidence (optics)
p1679
I1
sVGlobal warming
p1680
I1
sVSolar radiation management
p1681
I1
sVbi-hemispherical reflectance
p1682
I1
sVair mass
p1683
I1
sVdiffuse reflection
p1684
I1
sVBond albedo
p1685
I1
sVAqua (satellite)
p1686
I1
sVSuomi NPP
p1687
I1
sVclimate
p1688
I1
sVgreenhouse effect
p1689
I1
sVTerra (satellite)
p1690
I1
sVNASA
p1691
I1
sVrainforest
p1692
I1
sVNatural satellite
p1693
I1
sVJoint Polar Satellite System
p1694
I1
sVEarth observation
p1695
I1
sVrefractive index
p1696
I1
sVSolar System
p1697
I1
sVGeophysical Research Letters
p1698
I1
sVweather
p1699
I1
sVEnceladus
p1700
I1
sVphotometry (astronomy)
p1701
I1
sVantarctic
p1702
I1
sVinsolation
p1703
I1
sVastronomical body
p1704
I1
sVDiffuse reflection
p1705
I1
sVsunlight
p1706
I1
sVasteroid
p1707
I1
sVcloud cover
p1708
I1
sVEris (dwarf planet)
p1709
I1
sVAerosols
p1710
I1
sVminor planet
p1711
I1
sVsub-tropical
p1712
I1
sVseason
p1713
I1
sVopposition effect
p1714
I1
sVcomet nucleus
p1715
I1
sVLeadership in Energy and Environmental Design
p1716
I1
sVspace weathering
p1717
I1
sVplanet
p1718
I1
sVclimatology
p1719
I1
sVphotosynthesis
p1720
I1
sVreflectance
p1721
I1
sVHapke parameters
p1722
I1
sVIntergovernmental Panel on Climate Change
p1723
I1
sVSingle-scattering albedo
p1724
I1
sVDeciduous trees
p1725
I1
sVtemperate forest
p1726
I1
sVwaviness
p1727
I1
sVterminator (solar)
p1728
I1
sVExitance
p1729
I1
sVGlobal dimming
p1730
I1
sVradiation
p1731
I1
sVsnow
p1732
I1
sVCool roof
p1733
I1
sVposition of the Sun
p1734
I1
sVarctic
p1735
I1
sVdeforestation
p1736
I1
sVBidirectional reflectance distribution function
p1737
I1
sVdust
p1738
I1
sVCryoconite
p1739
I1
sVastronomy
p1740
I1
sVphase angle (astronomy)
p1741
I1
sVPhotometria
p1742
I1
sVregolith
p1743
I1
sVFresnel equations
p1744
I1
sVAntarctica
p1745
I1
sVIce-albedo feedback
p1746
I1
sVCloud albedo
p1747
I1
sVEarth
p1748
I1
ssS'An American in Paris'
p1749
(dp1750
VConcerto in F (Gershwin)
p1751
I1
sVRhapsody in Blue
p1752
I1
sVtimpani
p1753
I1
sVGuillaume Lekeu
p1754
I1
sVRCA Victor
p1755
I1
sVParis
p1756
I1
sVThe New York Times
p1757
I1
sVpiccolo
p1758
I1
sVbaritone saxophone
p1759
I1
sVE. Robert Schmitz
p1760
I1
sVTernary form
p1761
I1
sVW. B. Yeats
p1762
I1
sVtenor saxophone
p1763
I1
sVMaurice Ravel
p1764
I1
sVCarnegie Hall
p1765
I1
sVtrombone
p1766
I1
sVblues
p1767
I1
sVsnare drum
p1768
I1
sVtrumpet
p1769
I1
sVclarinet
p1770
I1
sVSeattle Symphony
p1771
I1
sVClaude Debussy
p1772
I1
sVLibrary of Congress
p1773
I1
sVbass clarinet
p1774
I1
sVScientific pitch notation
p1775
I1
sVxylophone
p1776
I1
sVDeems Taylor
p1777
I1
sVsoprano clarinet
p1778
I1
sVNadia Boulanger
p1779
I1
sVwood block
p1780
I1
sVNBC Symphony Orchestra
p1781
I1
sVString section
p1782
I1
sVLeslie Caron
p1783
I1
sVTom-tom drum
p1784
I1
sVsymphony orchestra
p1785
I1
sVAn American in Paris (film)
p1786
I1
sVbass drum
p1787
I1
sVJack Gibbons
p1788
I1
sVNathaniel Shilkret
p1789
I1
sVPablo Picasso
p1790
I1
sVHarry James
p1791
I1
sVRichard Wagner
p1792
I1
sVsoprano saxophone
p1793
I1
sVUniversity of Michigan
p1794
I1
sVflute
p1795
I1
sVAragon Ballroom (Chicago)
p1796
I1
sVGeorge Gershwin
p1797
I1
sVMetro-Goldwyn-Mayer
p1798
I1
sVoboe
p1799
I1
sVErnest Hemingway
p1800
I1
sVMusical America
p1801
I1
sVJohnny Green
p1802
I1
sVjazz
p1803
I1
sVThe Kennedy Center
p1804
I1
sVurtext edition
p1805
I1
sValto saxophone
p1806
I1
sVcymbal
p1807
I1
sVFrench horn
p1808
I1
sVcelesta
p1809
I1
sVvehicle horn
p1810
I1
sVCharlie Chaplin
p1811
I1
sVVincente Minnelli
p1812
I1
sVglockenspiel
p1813
I1
sVBlues
p1814
I1
sVLes Six
p1815
I1
sVGene Kelly
p1816
I1
sVBoston Pops Orchestra
p1817
I1
sVNew York Philharmonic
p1818
I1
sVArturo Toscanini
p1819
I1
sVColumbia Records
p1820
I1
sVTriangle (musical instrument)
p1821
I1
sVLeonard Bernstein
p1822
I1
sVtwelve-bar blues
p1823
I1
sVbassoon
p1824
I1
sVPhiladelphia Orchestra
p1825
I1
sVWilliam Merrigan Daly
p1826
I1
sVsaxophone
p1827
I1
sVEzra Pound
p1828
I1
sVEnglish horn
p1829
I1
sVHistorical editions (music)
p1830
I1
sVhomesickness
p1831
I1
sVWalter Damrosch
p1832
I1
sVArthur Fiedler
p1833
I1
sVRCA Victor Symphony Orchestra
p1834
I1
sVtuba
p1835
I1
ssS'International Atomic Time'
p1836
(dp1837
VGlobal Positioning System
p1838
I1
sVTime and frequency transfer
p1839
I1
sVRoyal Greenwich Observatory
p1840
I1
sVEphemeris Time
p1841
I1
sVdiscontinuous
p1842
I1
sVgravitational time dilation
p1843
I1
sVleap second
p1844
I1
sVTerrestrial Time
p1845
I1
sVIERS
p1846
I1
sVsecond
p1847
I1
sVGregorian calendar
p1848
I1
sVEpoch (reference date)
p1849
I1
sVInternational System of Units
p1850
I1
sVClock synchronization
p1851
I1
sVCelestial Mechanics and Dynamical Astronomy
p1852
I1
sVUnited States Naval Observatory
p1853
I1
sVVLF
p1854
I1
sVmean sea level
p1855
I1
sVCoordinated Universal Time
p1856
I1
sVorder of magnitude
p1857
I1
sVUT2
p1858
I1
sVtime standard
p1859
I1
sVreal-time data
p1860
I1
sVAtomichron
p1861
I1
sVUniversal Time
p1862
I1
sVJulian Date
p1863
I1
sVGeocentric Coordinate Time
p1864
I1
sVnavigation
p1865
I1
sVEarth
p1866
I1
sVtimecode
p1867
I1
sVsignal averaging
p1868
I1
sVastronomy
p1869
I1
sVNetwork Time Protocol
p1870
I1
sVcaesium
p1871
I1
sVproper time
p1872
I1
sVatomic clock
p1873
I1
sVweighted average
p1874
I1
sVUT1
p1875
I1
sVcoordinate time
p1876
I1
sVNational Bureau of Standards
p1877
I1
sVInternational Time Bureau
p1878
I1
sVPrecision Time Protocol
p1879
I1
sVcaesium clock
p1880
I1
sVtwo-way satellite time and frequency transfer
p1881
I1
sVBarycentric Coordinate Time
p1882
I1
sVquartz clock
p1883
I1
sVInternational Bureau of Weights and Measures
p1884
I1
sVgeoid
p1885
I1
sVCanonical form
p1886
I1
ssS'Aristotle'
p1887
(dp1888
VMartin Heidegger
p1889
I1
sVvirtue ethics
p1890
I1
sVcarpel
p1891
I1
sVPoetry
p1892
I1
sVcrocodile
p1893
I1
sVEarly Church
p1894
I1
sVArmand Marie Leroi
p1895
I1
sVThe Laws of Thought
p1896
I1
sVPlato
p1897
I1
sVclassical mechanics
p1898
I1
sVSophist (dialogue)
p1899
I1
sVWater (classical element)
p1900
I1
sVRoman Empire
p1901
I1
sVgeology
p1902
I1
sVPoetics (Aristotle)
p1903
I1
sVgestation
p1904
I1
sVartery
p1905
I1
sVDeductive reasoning
p1906
I1
sVCassander
p1907
I1
sVMollusc
p1908
I1
sVJohann Jakob Dorner the Elder
p1909
I1
sVmammal
p1910
I1
sVoptics
p1911
I1
sVpulse
p1912
I1
sVsoul
p1913
I1
sVLife expectancy
p1914
I1
sVcephalopod
p1915
I1
sVHephaestion
p1916
I1
sVAlessandro Turchi
p1917
I1
sVatomism
p1918
I1
sVLaws of Association
p1919
I1
sVsocial contract
p1920
I1
sVBoethius
p1921
I1
sVConimbricenses
p1922
I1
sVPrior Analytics
p1923
I1
sVbird
p1924
I1
sVGeneration of Animals
p1925
I1
sVPlants
p1926
I1
sVRhetoric
p1927
I1
sVMineral
p1928
I1
sVProgramma Nazionale di Ricerche in Antartide
p1929
I1
sVNewtonian physics
p1930
I1
sVJames of Venice
p1931
I1
sVCharonia variegata
p1932
I1
sVAlcmaeon of Croton
p1933
I1
sVAristotle for Everybody
p1934
I1
sVWestern philosophy
p1935
I1
sVGerard of Cremona
p1936
I1
sVvolcanic eruption
p1937
I1
sVPalaephatus
p1938
I1
sVDithyramb
p1939
I1
sVduck
p1940
I1
sVextinction
p1941
I1
sVJonathan Barnes
p1942
I1
sVAristotle Mountains
p1943
I1
sVgenomics
p1944
I1
sVXenocrates
p1945
I1
sVHistoria Plantarum (Theophrastus)
p1946
I1
sVSea bass
p1947
I1
sVkinematics
p1948
I1
sVcrab
p1949
I1
sVaperture
p1950
I1
sVSkate (fish)
p1951
I1
sVsensorium
p1952
I1
sVbronze sculpture
p1953
I1
sVvalidity
p1954
I1
sVAncient Greece
p1955
I1
sVChalcidian League
p1956
I1
sVPaolo Veronese
p1957
I1
sVparticular
p1958
I1
sVUniversality (philosophy)
p1959
I1
sVDante Alighieri
p1960
I1
sVpathos
p1961
I1
sVlogos
p1962
I1
sVworm
p1963
I1
sVCinema of the United States
p1964
I1
sVFriedrich Nietzsche
p1965
I1
sVexecutor
p1966
I1
sVgastropod
p1967
I1
sVmnemonic
p1968
I1
sVWill (law)
p1969
I1
sVcommon descent
p1970
I1
sVviviparity
p1971
I1
sVMovement of Animals
p1972
I1
sVruminant
p1973
I1
sVTimaeus (dialogue)
p1974
I1
sVanimal
p1975
I1
sVpolis
p1976
I1
sVScholasticism
p1977
I1
sVplant
p1978
I1
sVabstraction
p1979
I1
sVCicero
p1980
I1
sVHistory of Animals
p1981
I1
sVJohn Buridan
p1982
I1
sVPolitics
p1983
I1
sVReptile
p1984
I1
sVBee-eater
p1985
I1
sVJusepe de Ribera
p1986
I1
sVCharles Lyell
p1987
I1
sVfunction (biology)
p1988
I1
sVGreece
p1989
I1
sVnous
p1990
I1
sVanachronism
p1991
I1
sVbotany
p1992
I1
sVessence
p1993
I1
sVForensic rhetoric
p1994
I1
sVBryan Magee
p1995
I1
sVCirca
p1996
I1
sVepideictic
p1997
I1
sVlinguistics
p1998
I1
sVEurymedon the Hierophant
p1999
I1
sVheron
p2000
I1
sVgestation period
p2001
I1
sVAesop
p2002
I1
sVsyllogism
p2003
I1
sVGalileo Galilei
p2004
I1
sVProof (truth)
p2005
I1
sVGenus-differentia definition
p2006
I1
sVSolid
p2007
I1
sVPhilip II of Macedon
p2008
I1
sVrhetoric
p2009
I1
sVVirtue ethics
p2010
I1
sVSquid
p2011
I1
sVAge of Enlightenment
p2012
I1
sVTrial of Socrates
p2013
I1
sVfour causes
p2014
I1
sVreductio ad absurdum
p2015
I1
sVfish
p2016
I1
sVcinema of the United States
p2017
I1
sVmollusc
p2018
I1
sVErnst Mayr
p2019
I1
sVphronesis
p2020
I1
sVFelix Jacoby
p2021
I1
sVpsychology
p2022
I1
sVCommon fig
p2023
I1
sVRenaissance
p2024
I1
sVcatharsis
p2025
I1
sVperception
p2026
I1
sVBust (sculpture)
p2027
I1
sVcrustacea
p2028
I1
sVformal cause
p2029
I1
sVPlasma (physics)
p2030
I1
sVAustralian Antarctic Division
p2031
I1
sVmisogyny
p2032
I1
sVStanford Encyclopedia of Philosophy
p2033
I1
sVCrustaceans
p2034
I1
sVPtolemaic dynasty
p2035
I1
sVembryo
p2036
I1
sVChalcidice
p2037
I1
sVnatural science
p2038
I1
sVnatural theology
p2039
I1
sVAristotelian physics
p2040
I1
sVClassical Greece
p2041
I1
sVPythia
p2042
I1
sVAlasdair MacIntyre
p2043
I1
sVEarly Modern
p2044
I1
sVOttoman viper
p2045
I1
sVesoteric
p2046
I1
sVShrimp
p2047
I1
sVLate Antiquity
p2048
I1
sVcamera obscura
p2049
I1
sVOxford University Press
p2050
I1
sVtreatise
p2051
I1
sVPotentiality and actuality (Aristotle)
p2052
I1
sVCarlo Rovelli
p2053
I1
sVNicomachus (son of Aristotle)
p2054
I1
sVThe Story of Philosophy
p2055
I1
sVCritique of Pure Reason
p2056
I1
sVAlkindus
p2057
I1
sVAether (classical element)
p2058
I1
sVAustralian Government
p2059
I1
sVSubstance theory
p2060
I1
sVProtrepticus (Aristotle)
p2061
I1
sVStephen Halliwell (academic)
p2062
I1
sVJohn Philoponus
p2063
I1
sVmetaphysics
p2064
I1
sVTheory of Forms
p2065
I1
sVLysippos
p2066
I1
sVMnason of Phocis
p2067
I1
sVDemocritus
p2068
I1
sVScientific Committee on Antarctic Research
p2069
I1
sVSumma Theologica
p2070
I1
sVmechanism (biology)
p2071
I1
sVPeter Medawar
p2072
I1
sVCornell University
p2073
I1
sVfresco
p2074
I1
sVinvertebrate
p2075
I1
sVLogic
p2076
I1
sVMammal
p2077
I1
sVfinal cause
p2078
I1
sVSuda
p2079
I1
sVGeoffrey Chaucer
p2080
I1
sVAntarctica
p2081
I1
sVEarth
p2082
I1
sVWilliam Harvey
p2083
I1
sVSpeusippus
p2084
I1
sVCetaceans
p2085
I1
sVsyntax
p2086
I1
sVSponges
p2087
I1
sVsexism
p2088
I1
sVSophocles
p2089
I1
sVNeoplatonism
p2090
I1
sVNuremberg Chronicle
p2091
I1
sVMichael of Ephesus
p2092
I1
sVPythias
p2093
I1
sVcommon sense
p2094
I1
sVJustus van Gent
p2095
I1
sVEarth (classical element)
p2096
I1
sVHomer
p2097
I1
sValabaster
p2098
I1
sVImmanuel Kant
p2099
I1
sVChristian theology
p2100
I1
sVevolution
p2101
I1
sVAncient philosophy
p2102
I1
sVAsia Minor
p2103
I1
sVFGrHist
p2104
I1
sVGalen
p2105
I1
sVepic poetry
p2106
I1
sVbrood size
p2107
I1
sVAntipater
p2108
I1
sVdevelopmental biology
p2109
I1
sVClaudius Aelianus
p2110
I1
sVentelecheia
p2111
I1
sVOedipus Rex
p2112
I1
sVMacedon
p2113
I1
sVDeliberative rhetoric
p2114
I1
sVDunamis
p2115
I1
sVBiology
p2116
I1
sVMaterial substratum
p2117
I1
sVBertrand Russell
p2118
I1
sVHybridisation (biology)
p2119
I1
sVyolk sac
p2120
I1
sVtheory of impetus
p2121
I1
sVscrolls
p2122
I1
sVpremise
p2123
I1
sVClarendon Press
p2124
I1
sVBook frontispiece
p2125
I1
sVThessaloniki
p2126
I1
sVCockle (bivalve)
p2127
I1
sVPeripatetic school
p2128
I1
sVpapyrus
p2129
I1
sVTheophrastus
p2130
I1
sVlogic
p2131
I1
sVZoology
p2132
I1
sVparadeigma
p2133
I1
sVEuboea
p2134
I1
sVPolitics (Aristotle)
p2135
I1
sVMusic
p2136
I1
sVadaptation
p2137
I1
sVCollins English Dictionary
p2138
I1
sVThe Guardian
p2139
I1
sVOn the Soul
p2140
I1
sVLesbos
p2141
I1
sVAlexander the Great
p2142
I1
sVepistemology
p2143
I1
sVvanishing point
p2144
I1
sVScala naturae
p2145
I1
sVvertebrate
p2146
I1
sVAverroes
p2147
I1
sVphysiology
p2148
I1
sVuniversals
p2149
I1
sVLyceum
p2150
I1
sVLyceum (Classical)
p2151
I1
sVMiddle Ages
p2152
I1
sVAristotelianism
p2153
I1
sVLiquid
p2154
I1
sVpericarp
p2155
I1
sVWilliam of Moerbeke
p2156
I1
sVLucretius
p2157
I1
sVOrganon
p2158
I1
sVPotentiality and actuality
p2159
I1
sVGreek language
p2160
I1
sVSparisoma cretense
p2161
I1
sVAnt
p2162
I1
sVclassical element
p2163
I1
sVHans Baldung
p2164
I1
sVA priori and a posteriori
p2165
I1
sVaesthetics
p2166
I1
sVThomas Aquinas
p2167
I1
sVPlutarch
p2168
I1
sVAlpharabius
p2169
I1
sVDemetrius of Phalerum
p2170
I1
sVontogeny
p2171
I1
sVHermias of Atarneus
p2172
I1
sVCharles Darwin
p2173
I1
sVFire (classical element)
p2174
I1
sVAmyntas III of Macedon
p2175
I1
sVcatfish
p2176
I1
sVFrancesco Hayez
p2177
I1
sVNile delta
p2178
I1
sVProdicus of Ceos
p2179
I1
sVThe Canterbury Tales
p2180
I1
sVefficient cause
p2181
I1
sVCambridge University Press
p2182
I1
sVRaphael
p2183
I1
sVfecundity
p2184
I1
sVTufts University
p2185
I1
sVPersia
p2186
I1
sVwhale
p2187
I1
sVPhysics
p2188
I1
sVMilky Way
p2189
I1
sVCampaspe
p2190
I1
sVOn Generation and Corruption
p2191
I1
sVMetaphysics (Aristotle)
p2192
I1
sVProxenus of Atarneus
p2193
I1
sVProblems (Aristotle)
p2194
I1
sVMaterial cause
p2195
I1
sVIndianapolis Museum of Art
p2196
I1
sVPlatonism
p2197
I1
sVanimal behaviour
p2198
I1
sVInternational Academy of the History of Science
p2199
I1
sVstate of nature
p2200
I1
sVPtolemy I Soter
p2201
I1
sVAeolian islands
p2202
I1
sVAristotle with a Bust of Homer
p2203
I1
sVhamartia
p2204
I1
sVGas
p2205
I1
sVempiricism
p2206
I1
sVEthics
p2207
I1
sVplacenta
p2208
I1
sVAccident (philosophy)
p2209
I1
sVEmpedocles
p2210
I1
sVnightjar
p2211
I1
sVComposite Antarctic Gazetteer
p2212
I1
sVdialectics
p2213
I1
sVDepartment of the Environment and Energy
p2214
I1
sVphylogeny
p2215
I1
sVCelestial spheres
p2216
I1
sVvacuum
p2217
I1
sVEarly Middle Ages
p2218
I1
sVRembrandt
p2219
I1
sVAristoxenus
p2220
I1
sVShark
p2221
I1
sVAlexandria
p2222
I1
sVOvoviviparity
p2223
I1
sVMetaphysics
p2224
I1
sVMeteorology (Aristotle)
p2225
I1
sVDicaearchus
p2226
I1
sVNicomachus (father of Aristotle)
p2227
I1
sVphenomena
p2228
I1
sVAristotelian society
p2229
I1
sVcicada
p2230
I1
sVAristotle (Ribera painting)
p2231
I1
sVeudaimonia
p2232
I1
sVmaterial cause
p2233
I1
sVconvergent evolution
p2234
I1
sVGovernment
p2235
I1
sVNicomachean Ethics
p2236
I1
sVW. D. Ross
p2237
I1
sVphilosopher
p2238
I1
sVGeorge Boole
p2239
I1
sVEthnocentricism
p2240
I1
sVethos
p2241
I1
sVbiology
p2242
I1
sVmedieval
p2243
I1
sVscala naturae
p2244
I1
sVChalkidiki
p2245
I1
sVInternet Encyclopedia of Philosophy
p2246
I1
sVHarpalus
p2247
I1
sVstimulus (psychology)
p2248
I1
sVontology
p2249
I1
sVCephalopods
p2250
I1
sVBoolean algebra
p2251
I1
sVSnakes
p2252
I1
sVPeter Abelard
p2253
I1
sVformal logic
p2254
I1
sVAristoteles (crater)
p2255
I1
sVoctopus
p2256
I1
sVBirds
p2257
I1
sVreptile
p2258
I1
sVPsychology
p2259
I1
sVAugust Boeckh
p2260
I1
sVAndronicus of Rhodes
p2261
I1
sVPhysics (Aristotle)
p2262
I1
sVParts of Animals
p2263
I1
sVThe Forms
p2264
I1
sVmathematical logic
p2265
I1
sVStephen of Alexandria
p2266
I1
sVspeciation
p2267
I1
sVzoology
p2268
I1
sVdeductive system
p2269
I1
sVChameleon
p2270
I1
sVcirculation of the blood
p2271
I1
sVCatholic Church
p2272
I1
sVLogical consequence
p2273
I1
sVelectric ray
p2274
I1
sVIslamic theology
p2275
I1
sVhylomorphism
p2276
I1
sVhare
p2277
I1
sVSyllogism
p2278
I1
sVEudemos of Rhodes
p2279
I1
sVThe tale of Phyllis and Aristotle
p2280
I1
sVAvicenna
p2281
I1
sVteleological
p2282
I1
sVAir (classical element)
p2283
I1
sVpaper nautilus
p2284
I1
sVbiological rules
p2285
I1
sVfrogfish
p2286
I1
sVArchimedes
p2287
I1
sVDolphin
p2288
I1
sVLucas Cranach the Elder
p2289
I1
sVHerophilos
p2290
I1
sVTheory of forms
p2291
I1
sVJ. L. Ackrill
p2292
I1
sVselachian
p2293
I1
sVexoteric
p2294
I1
sVmimesis
p2295
I1
sVIslamic philosophy
p2296
I1
sVhectocotylus
p2297
I1
sVHerpyllis
p2298
I1
sVThe Divine Comedy
p2299
I1
sVAnna Comnena
p2300
I1
sVInductive reasoning
p2301
I1
sVThe School of Athens
p2302
I1
sVAlexander (2004 film)
p2303
I1
sVSpontaneous generation
p2304
I1
sVmantle (clothing)
p2305
I1
sVStagira (ancient city)
p2306
I1
sVAyn Rand
p2307
I1
sVhound shark
p2308
I1
sVastronomy
p2309
I1
sVfeminist metaphysics
p2310
I1
sVvein
p2311
I1
sVJonathan Jones (journalist)
p2312
I1
sVbivalve
p2313
I1
sVteleology
p2314
I1
sVUniformitarianism
p2315
I1
sVenthymeme
p2316
I1
sVHagnothemis
p2317
I1
sVOxford Studies in Ancient Philosophy
p2318
I1
sVImmanuel Bekker
p2319
I1
sVHectocotylus
p2320
I1
ssS'Achilles'
p2321
(dp2322
VJean-Baptiste Lully
p2323
I1
sVHouse of the Tragic Poet
p2324
I1
sVDelphi
p2325
I1
sVAnabasis Alexandri
p2326
I1
sVInferno (Dante)
p2327
I1
sVballad opera
p2328
I1
sVMuseum Boijmans Van Beuningen
p2329
I1
sVFrancesco Cavalli
p2330
I1
sVballet
p2331
I1
sVPlato
p2332
I1
sVDares Phrygius
p2333
I1
sVOlympos (novel)
p2334
I1
sVHellenes
p2335
I1
sVOdyssey
p2336
I1
sVheroic cult
p2337
I1
sVSuitors of Penelope
p2338
I1
sVJohann Wolfgang von Goethe
p2339
I1
sVKiliya
p2340
I1
sVAntonio Caldara
p2341
I1
sVPaeonian
p2342
I1
sVPtolemy Hephaestion
p2343
I1
sVAltes Museum
p2344
I1
sVAchilleion (Corfu)
p2345
I1
sVPierre Gardel
p2346
I1
sVTaranto
p2347
I1
sVCorfu
p2348
I1
sVLittle Iliad
p2349
I1
sVChrista Wolf
p2350
I1
sVThe Last Olympian
p2351
I1
sVLycophron
p2352
I1
sVPelagon
p2353
I1
sVFrench Parliament
p2354
I1
sVCapitoline Museums
p2355
I1
sVLuigi Cherubini
p2356
I1
sVLatin
p2357
I1
sVZeus
p2358
I1
sVLocri
p2359
I1
sVEudorus
p2360
I1
sVEpic Cycle
p2361
I1
sVBlack Sea
p2362
I1
sVIllyrian languages
p2363
I1
sVOlbia (archaeological site)
p2364
I1
sVNicolas Poussin
p2365
I1
sVEos
p2366
I1
sVFirst Vatican Mythographer
p2367
I1
sVVergil
p2368
I1
sVtragedy
p2369
I1
sVCrotone
p2370
I1
sVChristophe Veyrier
p2371
I1
sVvotive offering
p2372
I1
sVGiovanni Battista Tiepolo
p2373
I1
sVBibliotheca (Pseudo-Apollodorus)
p2374
I1
sVDomenico Sarro
p2375
I1
sVAeneid
p2376
I1
sVPropertius
p2377
I1
sVOrange Prize for Fiction
p2378
I1
sVPontus Euxinus
p2379
I1
sVPompeii
p2380
I1
sVPhiloctetes
p2381
I1
sVBorysthenes
p2382
I1
sVUlysses (1954 film)
p2383
I1
sVTerence Hawkins
p2384
I1
sVProto-Indo-European
p2385
I1
sVChryseis
p2386
I1
sVHerculaneum
p2387
I1
sVGregory Nagy
p2388
I1
sVJohn Gay
p2389
I1
sVPausanias (geographer)
p2390
I1
sVBrad Pitt
p2391
I1
sVJohann Adolph Hasse
p2392
I1
sVKenneth Dover
p2393
I1
sVTroilus and Cressida
p2394
I1
sVRacecourse of Achilles
p2395
I1
sVLa Olmeda
p2396
I1
sVPalais Bourbon
p2397
I1
sVPeriplus of the Euxine Sea
p2398
I1
sVAcheron
p2399
I1
sVRoman mile
p2400
I1
sVDante Alighieri
p2401
I1
sVGetty Center
p2402
I1
sVHades
p2403
I1
sVMetamorphoses
p2404
I1
sVElisabeth of Bavaria
p2405
I1
sVThe Firebrand
p2406
I1
sVPeter Paul Rubens
p2407
I1
sVlyre
p2408
I1
sVHelen of Troy (film)
p2409
I1
sVPre-Greek
p2410
I1
sVPrometheus
p2411
I1
sVWilliam Shakespeare
p2412
I1
sVPomponius Mela
p2413
I1
sVParthia
p2414
I1
sVCicero
p2415
I1
sVMagna Graecia
p2416
I1
sVpanoramic
p2417
I1
sVElysium
p2418
I1
sVThymbra
p2419
I1
sVRoman de Troie
p2420
I1
sVScamander
p2421
I1
sVQuintus Smyrnaeus
p2422
I1
sVTenes
p2423
I1
sVMemnon (mythology)
p2424
I1
sVMetastasio
p2425
I1
sVAchille in Sciro
p2426
I1
sVThe Song of Achilles
p2427
I1
sVMaurus Servius Honoratus
p2428
I1
sVThessaly
p2429
I1
sVloan word
p2430
I1
sVHera
p2431
I1
sVChilia Veche
p2432
I1
sVHelen of Troy (miniseries)
p2433
I1
sVHelena (1924 film)
p2434
I1
sVepitheta
p2435
I1
sVGreek mythology
p2436
I1
sVHesiod
p2437
I1
sVPenthesilea
p2438
I1
sVOdysseus
p2439
I1
sVCarlo Aldini
p2440
I1
sVDetroit Institute of Arts
p2441
I1
sVPresence (album)
p2442
I1
sVDeiphobus
p2443
I1
sVoratorio
p2444
I1
sVlekythos
p2445
I1
sVCalchas
p2446
I1
sVlithography
p2447
I1
sVLiterary topos
p2448
I1
sVTroad
p2449
I1
sVRansom (Malouf novel)
p2450
I1
sVUkraine
p2451
I1
sVThe Trojan Horse (film)
p2452
I1
sVVolci
p2453
I1
sVhydria
p2454
I1
sVArgonautica
p2455
I1
sVAsteropaeus
p2456
I1
sVDavid Malouf
p2457
I1
sVSpit (landform)
p2458
I1
sVSporades
p2459
I1
sVOrestes (mythology)
p2460
I1
sVLost works
p2461
I1
sVThe Song of Troy
p2462
I1
sVIlium (novel)
p2463
I1
sVNaturalis Historia
p2464
I1
sVDanube
p2465
I1
sVPiero Lulli
p2466
I1
sVProclus
p2467
I1
sVGuido delle Colonne
p2468
I1
sVRick Riordan
p2469
I1
sVIliou persis
p2470
I1
sVDiogenes Laertius
p2471
I1
sVThe Rage of Achilles
p2472
I1
sVMount Pelion
p2473
I1
sVArgos
p2474
I1
sVPatroclus
p2475
I1
sVDeidamia (mythology)
p2476
I1
sVColleen McCullough
p2477
I1
sVAlcaeus of Mytilene
p2478
I1
sVAchilles heel
p2479
I1
sVPythia
p2480
I1
sVMessenia
p2481
I1
sVThetis
p2482
I1
sVKerkinitis
p2483
I1
sVWenceslaus Hollar
p2484
I1
sVCaracalla
p2485
I1
sVTroy (film)
p2486
I1
sVAjax (mythology)
p2487
I1
sVBriseus
p2488
I1
sVApollonius of Rhodes
p2489
I1
sVMyrmidons
p2490
I1
sVgraffiti
p2491
I1
sVStanley Baker
p2492
I1
sVheterosexual
p2493
I1
sVTrojan War
p2494
I1
sVTyras
p2495
I1
sVOceanus
p2496
I1
sVHistoria destructionis Troiae
p2497
I1
sVLaconia
p2498
I1
sVoinochoe
p2499
I1
sVUkrainian language
p2500
I1
sVNatural History (Pliny)
p2501
I1
sVfresco
p2502
I1
sVGordon Mitchell
p2503
I1
sVAlessandro Scarlatti
p2504
I1
sVRoyal Navy
p2505
I1
sVGeoffrey Chaucer
p2506
I1
sVAquileia
p2507
I1
sVLeonard Palmer
p2508
I1
sVDamysus (Giant)
p2509
I1
sVArctinus of Miletus
p2510
I1
sVAnthony van Dyck
p2511
I1
sVElectra (Euripides)
p2512
I1
sVEuripides
p2513
I1
sVLyrnessus
p2514
I1
sVStaatliche Antikensammlungen
p2515
I1
sVSophocles
p2516
I1
sVDnieper-Bug Estuary
p2517
I1
sVAchilles on Skyros
p2518
I1
sVCypria
p2519
I1
sVPotamoi
p2520
I1
sVHomer
p2521
I1
sVIndian Navy
p2522
I1
sVMax Bruch
p2523
I1
sVboard game
p2524
I1
sVGiovanni Paisiello
p2525
I1
sVHeracles
p2526
I1
sVNereus
p2527
I1
sVAchaeans (Homer)
p2528
I1
sVPascal Collasse
p2529
I1
sVDictys Cretensis
p2530
I1
sVVictoria and Albert Museum
p2531
I1
sVUlysses (poem)
p2532
I1
sVHellespont
p2533
I1
sVHell
p2534
I1
sVSparta
p2535
I1
sVLeo the Deacon
p2536
I1
sVOlympias
p2537
I1
sVkylix
p2538
I1
sVAres
p2539
I1
sVNereid
p2540
I1
sVDnieper
p2541
I1
sVAethiopis
p2542
I1
sVPriam
p2543
I1
sVCentaur
p2544
I1
sVAethiopia
p2545
I1
sVFortunate Isles
p2546
I1
sVDavid Gemmell
p2547
I1
sVThomas Corneille
p2548
I1
sVHecuba
p2549
I1
sVPhthia
p2550
I1
sVNeoptolemus
p2551
I1
sVDio Cassius
p2552
I1
sVMarion Zimmer Bradley
p2553
I1
sVLouvre
p2554
I1
sVZeno of Elea
p2555
I1
sVApollonius Rhodius
p2556
I1
sVAulis (ancient Greece)
p2557
I1
sVNestor (mythology)
p2558
I1
sVJohn Malalas
p2559
I1
sVEpirus (ancient state)
p2560
I1
sVGreek sea gods
p2561
I1
sVGiuseppe Sarti
p2562
I1
sVThe Death of Achilles
p2563
I1
sVLesches
p2564
I1
sVGreeks in pre-Roman Crimea
p2565
I1
sVDan Simmons
p2566
I1
sVAlexander the Great
p2567
I1
sVSkyros
p2568
I1
sVShield of Achilles
p2569
I1
sVPersians
p2570
I1
sVPliny the Elder
p2571
I1
sVList of Anolis lizards
p2572
I1
sVSnake Island (Black Sea)
p2573
I1
sVPoseidon
p2574
I1
sVThomas Arne
p2575
I1
sVOvid
p2576
I1
sVPhoenix (son of Amyntor)
p2577
I1
sVAithiopis
p2578
I1
sVRoyal New Zealand Navy
p2579
I1
sVThemis
p2580
I1
sVElis
p2581
I1
sVTroilus
p2582
I1
sVmound
p2583
I1
sVDavid Gyasi
p2584
I1
sVAchelous
p2585
I1
sVstelae
p2586
I1
sVAthena
p2587
I1
sVPoeticon astronomicon
p2588
I1
sVChiron
p2589
I1
sVSecond Greek colonisation
p2590
I1
sVNaples National Archaeological Museum
p2591
I1
sVKarkinit Bay
p2592
I1
sVOlympian gods
p2593
I1
sVBlack-glazed Ware
p2594
I1
sVMax Slevogt
p2595
I1
sVGeorge Frideric Handel
p2596
I1
sVMuseo del Prado
p2597
I1
sVMysia
p2598
I1
sVred-figure
p2599
I1
sVStatius
p2600
I1
sVmosaic
p2601
I1
sVPedasus
p2602
I1
sVLeuke
p2603
I1
sVPhilostratus III
p2604
I1
sVCompound (linguistics)
p2605
I1
sVAmbrosian Iliad
p2606
I1
sVDionysius Periegetes
p2607
I1
sVlost works
p2608
I1
sVQuintus of Smyrna
p2609
I1
sVPeriplus Ponti Euxini
p2610
I1
sVPhaselis
p2611
I1
sVAntilochus
p2612
I1
sVHecuba (play)
p2613
I1
sVMadeline Miller
p2614
I1
sVMiletus
p2615
I1
sVInscriptiones Graecae
p2616
I1
sVStephanus Byzantinus
p2617
I1
sVHermes
p2618
I1
sVThe Odyssey (miniseries)
p2619
I1
sVRobert S. P. Beekes
p2620
I1
sVHarvard University Press
p2621
I1
sVBerezan Island
p2622
I1
sVGeographica
p2623
I1
sVIsland of the Blest
p2624
I1
sVThessalians
p2625
I1
sVTroy
p2626
I1
sVBattle of Trafalgar
p2627
I1
sVJames Barry (painter)
p2628
I1
sVEuphronios
p2629
I1
sVmuster (military)
p2630
I1
sVHelene (Amazon)
p2631
I1
sVlibretto
p2632
I1
sVMytilene
p2633
I1
sVGiovanni de Gamerra
p2634
I1
sVTelephus
p2635
I1
sVHephaestus
p2636
I1
sVMedea
p2637
I1
sVParis (mythology)
p2638
I1
sVGreek colonies
p2639
I1
sVApollo
p2640
I1
sVAstypalaea
p2641
I1
sVLed Zeppelin
p2642
I1
sVCatullus
p2643
I1
sVIphigenia in Aulis
p2644
I1
sVCassandra (novel)
p2645
I1
sVPhotius
p2646
I1
sVPeuce
p2647
I1
sVhomosexual
p2648
I1
sVHerodotus
p2649
I1
sVAttica
p2650
I1
sVArturo Dominici
p2651
I1
sVLeonardo Leo
p2652
I1
sVHistories (Herodotus)
p2653
I1
sVSymposium (Plato)
p2654
I1
sVkantharos
p2655
I1
sVPeleus
p2656
I1
sVPolyxena
p2657
I1
sVGreeks
p2658
I1
sVLinear B
p2659
I1
sVambrosia
p2660
I1
sVAchilles Last Stand
p2661
I1
sVLycomedes
p2662
I1
sVAeneas
p2663
I1
sVAchilleid
p2664
I1
sVIliad
p2665
I1
sVThe Fury of Achilles
p2666
I1
sVDnieper-Bug estuary
p2667
I1
sVHorace
p2668
I1
sVEdward Shanks
p2669
I1
sVBoris Akunin
p2670
I1
sVAgamemnon
p2671
I1
sVEthiopia (mythology)
p2672
I1
sVBattle of the River Plate
p2673
I1
sVScythians
p2674
I1
sVIoannis Kakridis
p2675
I1
sVAmazons
p2676
I1
sVCadmus
p2677
I1
sVPlautus
p2678
I1
sVPosthomerica
p2679
I1
sVTauric Chersonese
p2680
I1
sVStrabo
p2681
I1
sVVulci
p2682
I1
sVMatter of Troy
p2683
I1
sVHector
p2684
I1
sVVirgil
p2685
I1
sVThe Divine Comedy
p2686
I1
sVBriseis
p2687
I1
sVTondo (art)
p2688
I1
sVclassical antiquity
p2689
I1
sVChryses
p2690
I1
sVTristia
p2691
I1
sVArrian
p2692
I1
sVGiuseppe Gazzaniga
p2693
I1
sVAmmianus Marcellinus
p2694
I1
sVYale Center for British Art
p2695
I1
sVghost
p2696
I1
sVTeatro di San Carlo
p2697
I1
sVStyx
p2698
I1
sVAeschylus
p2699
I1
sVPindar
p2700
I1
sVBulgars
p2701
I1
sVEgon Wellesz
p2702
I1
ssS'Alabama'
p2703
(dp2704
Vracial segregation
p2705
I1
sVCumberland School of Law
p2706
I1
sVShoal Creek Golf and Country Club
p2707
I1
sVWhite League
p2708
I1
sVstandard deduction
p2709
I1
sVHunt Refining Company
p2710
I1
sVU.S. Route 29 in Alabama
p2711
I1
sVEastern tiger swallowtail
p2712
I1
sVState of Alabama
p2713
I1
sVwild turkey
p2714
I1
sVfabrication (metal)
p2715
I1
sVLouisiana
p2716
I1
sVUniversity of Alabama
p2717
I1
sVWorld Corporal Punishment Research
p2718
I1
sVRobert Aderholt
p2719
I1
sVIndyCar Series
p2720
I1
sVminor league baseball
p2721
I1
sVPiedmont (United States)
p2722
I1
sVUniversity of Alabama School of Medicine
p2723
I1
sVChoctaw language
p2724
I1
sVAlabama Republican Party
p2725
I1
sVMontgomery Public Schools
p2726
I1
sVYazoo lands
p2727
I1
sVInterstate 222
p2728
I1
sVThomas Goode Jones School of Law
p2729
I1
sVLake Guntersville
p2730
I1
sVInterstate 759
p2731
I1
sVelectronics
p2732
I1
sVSpanish West Florida
p2733
I1
sVNatchez Trace Parkway
p2734
I1
sVMidwestern United States
p2735
I1
sVMabila
p2736
I1
sVHorseshoe Bend National Military Park
p2737
I1
sVUnited States Congress
p2738
I1
sVKnights of the White Camellia
p2739
I1
sVmammal
p2740
I1
sVAtlantic tarpon
p2741
I1
sVList of U.S. state trees
p2742
I1
sVMontgomery metropolitan area
p2743
I1
sVWBMM
p2744
I1
sVPolitical party strength in Alabama
p2745
I1
sVtropical storm
p2746
I1
sVnatural bridge
p2747
I1
sVFlag of Alabama
p2748
I1
sVAgnosticism
p2749
I1
sVCapital punishment in Alabama
p2750
I1
sVInterstate 85 in Alabama
p2751
I1
sVBirmingham Bowl
p2752
I1
sVSeal of Alabama
p2753
I1
sVcarbon steel
p2754
I1
sVSouthern Professional Hockey League
p2755
I1
sVSuperior Bancorp
p2756
I1
sVAccrediting Council for Independent Colleges and Schools
p2757
I1
sVHank Aaron Stadium
p2758
I1
sVRed Shirts (Southern United States)
p2759
I1
sVcolonists
p2760
I1
sVU.S. Steel
p2761
I1
sVDothan Regional Airport
p2762
I1
sVIndian removal
p2763
I1
sVAlabama House of Representatives
p2764
I1
sVFox Broadcasting Company
p2765
I1
sVMiles Law School
p2766
I1
sVdesegregation
p2767
I1
sVAlabama in the American Civil War
p2768
I1
sVPGA Tour
p2769
I1
sVU.S. Route 84 in Alabama
p2770
I1
sVSouthern League (baseball)
p2771
I1
sVU.S. Route 278 in Alabama
p2772
I1
sVRacking horse
p2773
I1
sVInterstate 59 in Alabama
p2774
I1
sVAttorney General of Alabama
p2775
I1
sVBaker v. Carr
p2776
I1
sVLoyalist (American Revolution)
p2777
I1
sVbiodiversity
p2778
I1
sVMercedes-Benz U.S. International
p2779
I1
sVsorghum
p2780
I1
sVCBS
p2781
I1
sVTombigbee River
p2782
I1
sVLargemouth bass
p2783
I1
sVAmerican Broadcasting Company
p2784
I1
sVcounty (United States)
p2785
I1
sVRegions-Harbert Plaza
p2786
I1
sVNative Hawaiians
p2787
I1
sVWFNA (TV)
p2788
I1
sVMuslim
p2789
I1
sVServisFirst
p2790
I1
sVAmtrak
p2791
I1
sVHindu
p2792
I1
sVWVTM
p2793
I1
sVCotton production in the United States
p2794
I1
sVarchaeological
p2795
I1
sVsoybean
p2796
I1
sVAppalachian Plateau
p2797
I1
sVcontainer terminal
p2798
I1
sVHispanic and Latino Americans
p2799
I1
sVHydrangea quercifolia
p2800
I1
sVFederal Insurance Contributions Act tax
p2801
I1
sVList of U.S. state birds
p2802
I1
sVWIAT
p2803
I1
sVCenters for Disease Control and Prevention
p2804
I1
sVCanonical Gospels
p2805
I1
sVNational Register of Historic Places
p2806
I1
sVVon Braun Center
p2807
I1
sVWBMA-LD
p2808
I1
sVprimary election
p2809
I1
sVAppalachian Mountains
p2810
I1
sVMontgomery Riverwalk Stadium
p2811
I1
sVSoutheastern United States
p2812
I1
sVBureau of Economic Analysis
p2813
I1
sVEastern Time Zone
p2814
I1
sVU.S. Route 411 in Alabama
p2815
I1
sVflora
p2816
I1
sVU.S. Route 431 in Alabama
p2817
I1
sVCrescent (train)
p2818
I1
sVU.S. Route 331 in Alabama
p2819
I1
sVPresbyterian church
p2820
I1
sVCorn production in the United States
p2821
I1
sVlumber
p2822
I1
sVKu Klux Klan
p2823
I1
sVfauna
p2824
I1
sVEvangelical Protestant
p2825
I1
sVLittle River Canyon National Preserve
p2826
I1
sVCahokia
p2827
I1
sVInterstate 359
p2828
I1
sVUniversity of North Alabama
p2829
I1
sVCreek people
p2830
I1
sVInterstate 565
p2831
I1
sVhumid subtropical climate
p2832
I1
sVspecies
p2833
I1
sVBellSouth
p2834
I1
sVDollar General Bowl
p2835
I1
sVWKRG
p2836
I1
sVYazoo land scandal
p2837
I1
sVTennessee-Tombigbee Waterway
p2838
I1
sVAlabama Alcoholic Beverage Control Board
p2839
I1
sVDemocratic Party (United States)
p2840
I1
sVBirmingham School of Law
p2841
I1
sVfreshwater fish
p2842
I1
sVAuburn University
p2843
I1
sVFive Civilized Tribes
p2844
I1
sVCumberland Presbyterian Church in America
p2845
I1
sVthunderstorm
p2846
I1
sVInfirmary Health System
p2847
I1
sVTuskegee National Forest
p2848
I1
sVTerri Sewell
p2849
I1
sVOld Mobile Site
p2850
I1
sVOrthodox Judaism
p2851
I1
sVYellowhammer News
p2852
I1
sVBBVA Compass
p2853
I1
sVAncient Objects and Sacred Realms
p2854
I1
sVAlabama Commission on Higher Education
p2855
I1
sVTennessee
p2856
I1
sVCivil Rights Act of 1964
p2857
I1
sVIslam
p2858
I1
sVMaxwell Air Force Base
p2859
I1
sVCatholic
p2860
I1
sVMississippi
p2861
I1
sVUnited States Census Bureau
p2862
I1
sVMartha Roby
p2863
I1
sVcamellia
p2864
I1
sVDoug Jones (politician)
p2865
I1
sVIllinois
p2866
I1
sVFairhope
p2867
I1
sVWBRC
p2868
I1
sVCanebrake (region of Alabama)
p2869
I1
sVKay Ivey
p2870
I1
sVJim Crow
p2871
I1
sVJames T. Rapier
p2872
I1
sVBob Riley
p2873
I1
sVWNCF
p2874
I1
sVUAB Blazers
p2875
I1
sVUnited States Constitution
p2876
I1
sVConstitution of Alabama
p2877
I1
sVInterstate 459
p2878
I1
sVInterstate 20 in Alabama
p2879
I1
sVAlabama Review
p2880
I1
sVGulf Coastal Plain
p2881
I1
sVLongleaf pine
p2882
I1
sVWetumpka
p2883
I1
sVJudaism
p2884
I1
sVMesoamerica
p2885
I1
sVNational Climatic Data Center
p2886
I1
sVNathan Bedford Forrest
p2887
I1
sVSupreme Court of Alabama
p2888
I1
sVMorris J. Brooks
p2889
I1
sVWPMI
p2890
I1
sVU.S. Route 31 in Alabama
p2891
I1
sVAlabama Judicial Building
p2892
I1
sVBlack Warrior River
p2893
I1
sVUniversity of Alabama School of Law
p2894
I1
sVWHDF
p2895
I1
sVNative Hawaiian
p2896
I1
sVConfederate States of America
p2897
I1
sVTrail of Tears
p2898
I1
sVSouthTrust Corporation
p2899
I1
sVList of plantations in Alabama
p2900
I1
sVFreedman
p2901
I1
sVAirbus LPGA Classic
p2902
I1
sVAirbus
p2903
I1
sVHuntsville International Airport
p2904
I1
sVChurches of Christ
p2905
I1
sV2010 United States Census
p2906
I1
sVErnest C. Hornsby
p2907
I1
sVAuburn Tigers
p2908
I1
sVIndigenous peoples
p2909
I1
sVmollusk
p2910
I1
sVAssemblies of God
p2911
I1
sVTheravada
p2912
I1
sVAnniston Army Depot
p2913
I1
sVB.L. Harbert International
p2914
I1
sVWDHN
p2915
I1
sVlife imprisonment without parole
p2916
I1
sVRedeemers
p2917
I1
sVbicameral
p2918
I1
sVSikhism
p2919
I1
sVUniversity of Alabama at Birmingham
p2920
I1
sVWSFA
p2921
I1
sVWRGX-LD
p2922
I1
sVspermatophyte
p2923
I1
sVU.S. Route 82 in Alabama
p2924
I1
sVMultiracial American
p2925
I1
sVDry county
p2926
I1
sVNative Americans in the United States
p2927
I1
sVTreemap
p2928
I1
sVNo Child Left Behind
p2929
I1
sVUnited States
p2930
I1
sVBirmingham Hammers
p2931
I1
sVMonarch butterfly
p2932
I1
sVCherokee Tribe of Northeast Alabama
p2933
I1
sVGarcilaso de la Vega (chronicler)
p2934
I1
sVJefferson County Schools (Alabama)
p2935
I1
sVStar blue quartz
p2936
I1
sVUAB Hospital
p2937
I1
sVTennessee Valley
p2938
I1
sVInterstate 22 in Alabama
p2939
I1
sVKorean language
p2940
I1
sVOutokumpu
p2941
I1
sVAlabama Democratic Party
p2942
I1
sVNASA
p2943
I1
sVGeorge Wallace
p2944
I1
sVAlabama language
p2945
I1
sVU.S. state
p2946
I1
sVHoar Construction
p2947
I1
sVAmerican Independent Party
p2948
I1
sVCherokee
p2949
I1
sVNorth Alabama
p2950
I1
sVOklahoma
p2951
I1
sVBuddhist
p2952
I1
sVIndigenous languages of the Americas
p2953
I1
sVU.S. Route 80 in Alabama
p2954
I1
sVBuddhism
p2955
I1
sVPGA Championship
p2956
I1
sVTuskegee University
p2957
I1
sVlegislative branch
p2958
I1
sVMobile metropolitan area
p2959
I1
sVIncome tax in the United States
p2960
I1
sVWAAY-TV
p2961
I1
sVoptical disc
p2962
I1
sVThyssenKrupp
p2963
I1
sVDixie Alley
p2964
I1
sVHuntsville Metropolitan Area
p2965
I1
sVHumanistic Judaism
p2966
I1
sVRedstone Arsenal
p2967
I1
sVHispanic White
p2968
I1
sVWilliam B. Bankhead National Forest
p2969
I1
sVHematite
p2970
I1
sVU.S. Route 98 in Alabama
p2971
I1
sVRolex Sports Car Series
p2972
I1
sVOhio River
p2973
I1
sVpaddle (spanking)
p2974
I1
sVArabic language
p2975
I1
sVHistory of Alabama
p2976
I1
sVWhite American
p2977
I1
sVEnglish American
p2978
I1
sVchief justice
p2979
I1
sVAssociation for Biblical Higher Education
p2980
I1
sVMississippi Territory
p2981
I1
sVReynolds v. Sims
p2982
I1
sVBlack Belt (region of Alabama)
p2983
I1
sVAvocent
p2984
I1
sVNon-Hispanic White
p2985
I1
sVThe United Methodist Church
p2986
I1
sVPhiladelphia
p2987
I1
sVAlabama Political Reporter
p2988
I1
sVBasilosaurus
p2989
I1
sVTuscaloosa station
p2990
I1
sVUnitarian Universalism
p2991
I1
sVAmerican Revolutionary War
p2992
I1
sVDCH Health System
p2993
I1
sVJewish
p2994
I1
sVScots-Irish American
p2995
I1
sVTombigbee District
p2996
I1
sVWalmart
p2997
I1
sVMainline Protestant
p2998
I1
sValcoholic beverage control state
p2999
I1
sVCoat of arms of Alabama
p3000
I1
sVAlabama Legislature
p3001
I1
sVOxford English Dictionary
p3002
I1
sVIndigenous (ecology)
p3003
I1
sVGeorge C. Marshall Space Flight Center
p3004
I1
sVIntergraph
p3005
I1
sVKentucky
p3006
I1
sVcomma-separated values
p3007
I1
sVMuscogee Creek people
p3008
I1
sVDisfranchisement after the Reconstruction Era
p3009
I1
sVToyota Motor Manufacturing Alabama
p3010
I1
sVGerman Americans
p3011
I1
sVMobile BayBears
p3012
I1
sVcivil rights movement
p3013
I1
sVU.S. Route 280 in Alabama
p3014
I1
sVAlabama State Treasurer
p3015
I1
sVamphibian
p3016
I1
sVAfrican languages
p3017
I1
sVPoarch Band of Creek Indians
p3018
I1
sVTornado Alley
p3019
I1
sVList of U.S. states and territories by population
p3020
I1
sVShawnee
p3021
I1
sVWDBB
p3022
I1
sVSouthern American English
p3023
I1
sVAlabama Department of Archives and History
p3024
I1
sVDillard v. Crenshaw County
p3025
I1
sVsingle-member districts
p3026
I1
sVAlabama Indian Affairs Commission
p3027
I1
sVColonial Bancgroup
p3028
I1
sVBlack church
p3029
I1
sVTalladega National Forest
p3030
I1
sVWells Fargo
p3031
I1
sVNondenominational Christianity
p3032
I1
sVList of U.S. states and territories by area
p3033
I1
sVConecuh Ridge Whiskey
p3034
I1
sVReform Judaism
p3035
I1
sVRace and ethnicity in the United States Census
p3036
I1
sVAfrican Americans
p3037
I1
sVUnited States Senate
p3038
I1
sVMoundville Archaeological Site
p3039
I1
sVboll weevil
p3040
I1
sVInterstate 59
p3041
I1
sVTallapoosa River
p3042
I1
sVBible Belt
p3043
I1
sVGreat Migration (African American)
p3044
I1
sVJohn Pope (military officer)
p3045
I1
sVNorth American Vertical Datum of 1988
p3046
I1
sVChickasaw
p3047
I1
sVlongleaf pine
p3048
I1
sVIrreligion
p3049
I1
sVMississippian culture
p3050
I1
sVDharma centre
p3051
I1
sVHistory of slavery in Alabama
p3052
I1
sVtrauma center
p3053
I1
sVSamford University
p3054
I1
sVPickwick Lake
p3055
I1
sVAmerican Religious Identification Survey
p3056
I1
sVBoeing
p3057
I1
sVBirmingham-Shuttlesworth International Airport
p3058
I1
sVTime in Alabama
p3059
I1
sVInterstate 165 (Alabama)
p3060
I1
sVChristianity
p3061
I1
sV1974 Super Outbreak
p3062
I1
sVMobile LPGA Tournament of Champions
p3063
I1
sVWest Florida
p3064
I1
sVRichard Shelby
p3065
I1
sVUnited States National Forest
p3066
I1
sVgross state product
p3067
I1
sVLPGA Tour
p3068
I1
sVList of U.S. state flowers
p3069
I1
sVtransliteration
p3070
I1
sVMontgomery Biscuits
p3071
I1
sVPort of Mobile
p3072
I1
sVliterate
p3073
I1
sVU.S. Route 78 in Alabama
p3074
I1
sVPoll tax (United States)
p3075
I1
sVLeft in Alabama
p3076
I1
sVState recognized tribes in the United States
p3077
I1
sVEchota Cherokee Tribe of Alabama
p3078
I1
sVCentral Time Zone
p3079
I1
sVProvince of Georgia
p3080
I1
sVU.S. Census Bureau
p3081
I1
sVAlexander Beaufort Meek
p3082
I1
sVVietnamese language
p3083
I1
sVBBVA
p3084
I1
sVFlorida
p3085
I1
sVMarshall Space Flight Center
p3086
I1
sVNASCAR
p3087
I1
sVinland waterway
p3088
I1
sVAtheism
p3089
I1
sVHumid temperate climate
p3090
I1
sVWDFX-TV
p3091
I1
sVCumberland Presbyterian Church
p3092
I1
sVState income tax
p3093
I1
sVBirmingham station (Alabama)
p3094
I1
sVSecession in the United States
p3095
I1
sVThird Military District
p3096
I1
sVLouisiana (New France)
p3097
I1
sVsubsistence farmers
p3098
I1
sVUnited Methodist Church
p3099
I1
sVMount Sinai School
p3100
I1
sVChampions Tour
p3101
I1
sVStephen Decatur Button
p3102
I1
sVRidge-and-Valley Appalachians
p3103
I1
sVBradley Byrne
p3104
I1
sVCotton
p3105
I1
sVAlabama Crimson Tide
p3106
I1
sVAnniston station
p3107
I1
sVATP Birmingham
p3108
I1
sVJudiciary
p3109
I1
sVAdjectivals and demonyms for U.S. states
p3110
I1
sVUniversity of South Alabama
p3111
I1
sVRepublic of West Florida
p3112
I1
sVThe Birmingham News
p3113
I1
sVJim Crow laws
p3114
I1
sVWALA
p3115
I1
sVU.S. Route 43 in Alabama
p3116
I1
sVMuskogean
p3117
I1
sVInterstate 10 in Alabama
p3118
I1
sVAlabama Constitution
p3119
I1
sVInterstate 422
p3120
I1
sVRegions Financial Corporation
p3121
I1
sVSpring Hill College
p3122
I1
sVMOWA Band of Choctaw Indians
p3123
I1
sVEdgewater Presbyterian Church
p3124
I1
sVUnited States Army Materiel Command
p3125
I1
sVPecan
p3126
I1
sVMike D. Rogers
p3127
I1
sVHyundai Motor Manufacturing Alabama
p3128
I1
sVFreedom Rides
p3129
I1
sVSouthern Association of Colleges and Schools
p3130
I1
sVRocky Mountains
p3131
I1
sVWetumpka crater
p3132
I1
sVImmigration to the United States
p3133
I1
sVSouthern Baptist Convention
p3134
I1
sVRegions Field
p3135
I1
sVList of place names in Alabama of Native American origin
p3136
I1
sVBirmingham Barons
p3137
I1
sVThe Tradition
p3138
I1
sVWheeler Lake
p3139
I1
sVAlabama State Board of Education
p3140
I1
sVBrown v. Board of Education
p3141
I1
sVAmerican black bear
p3142
I1
sVChoctaw
p3143
I1
sVSephardic Jews
p3144
I1
sVSelma To Montgomery National Historic Trail
p3145
I1
sV1993 Storm of the Century
p3146
I1
sVMilton Frank Stadium
p3147
I1
sVAlabama Fever
p3148
I1
sVpteridophyte
p3149
I1
sVLa Louisiane
p3150
I1
sVHinduism
p3151
I1
sVAlabama Secretary of State
p3152
I1
sVTroy University
p3153
I1
sVproportional representation
p3154
I1
sVtrial court
p3155
I1
sVVoting Rights Act of 1965
p3156
I1
sVMobile Bay
p3157
I1
sVNational Premier Soccer League
p3158
I1
sVArtifact (archaeology)
p3159
I1
sVMississippi River
p3160
I1
sVUnited States House of Representatives
p3161
I1
sVNorthern flicker
p3162
I1
sVWTVY (TV)
p3163
I1
sVUniversity of Alabama School of Dentistry
p3164
I1
sVDisfranchisement after Reconstruction era
p3165
I1
sVWorld Championship Tennis
p3166
I1
sVTalladega Superspeedway
p3167
I1
sVHernando de Soto
p3168
I1
sVgerrymandering
p3169
I1
sVGovernor of Alabama
p3170
I1
sVMaine
p3171
I1
sVPC(USA)
p3172
I1
sVAlabama red-bellied turtle
p3173
I1
sVMontgomery Regional Airport
p3174
I1
sVcrayfish
p3175
I1
sVEuropean colonization of the Americas
p3176
I1
sVlynching
p3177
I1
sVSoutheastern Ceremonial Complex
p3178
I1
sVThe CW
p3179
I1
sVList of U.S. state nicknames
p3180
I1
sVState Auditor of Alabama
p3181
I1
sVBenjamin S. Turner
p3182
I1
sVTexas
p3183
I1
sVAmerican Civil War
p3184
I1
sVHyundai Elantra
p3185
I1
sVSweet Home Alabama
p3186
I1
sVMontgomery Advertiser
p3187
I1
sVPress-Register
p3188
I1
sVSouthern United States
p3189
I1
sVPlantation complexes in the Southeastern United States
p3190
I1
sVUniversity of Alabama in Huntsville
p3191
I1
sVstainless steel
p3192
I1
sVseating capacity
p3193
I1
sVAmSouth Bancorporation
p3194
I1
sVAudemus iura nostra defendere
p3195
I1
sVInterstate 20
p3196
I1
sVMontgomery Bus Boycott
p3197
I1
sVAshkenazi Jews
p3198
I1
sVHymenocallis coronaria
p3199
I1
sVAlabama River
p3200
I1
sVGoodyear Tire and Rubber Company
p3201
I1
sVAlabama State Capitol
p3202
I1
sVBama (soil)
p3203
I1
sVaerospace
p3204
I1
sVList of U.S. states
p3205
I1
sVFifteenth Amendment to the United States Constitution
p3206
I1
sVList of Lieutenant Governors of Alabama
p3207
I1
sVinsurgent
p3208
I1
sVSelma to Montgomery marches
p3209
I1
sVIroquoian language
p3210
I1
sVlightning
p3211
I1
sVURS Corporation
p3212
I1
sVWhite v. Crook
p3213
I1
sVblackberry
p3214
I1
sVAlabama Department of Postsecondary Education
p3215
I1
sVList of U.S. states by date of admission to the Union
p3216
I1
sVWEAR-TV
p3217
I1
sVWTTO
p3218
I1
sVEastern Orthodox
p3219
I1
sVschool corporal punishment
p3220
I1
sVRussell Cave National Monument
p3221
I1
sVMobile Regional Airport
p3222
I1
sVMuskogean languages
p3223
I1
sVWCOV-TV
p3224
I1
sVhail
p3225
I1
sVCoosa River
p3226
I1
sVAlabama Public Television
p3227
I1
sVAlabama Territory
p3228
I1
sVPresbyterian Church in America
p3229
I1
sVADTRAN
p3230
I1
sVMount Cheaha
p3231
I1
sVTuskegee Airmen National Historic Site
p3232
I1
sVIce hockey
p3233
I1
sVRosenwald Schools
p3234
I1
sVCoordinated Universal Time
p3235
I1
sVhurricane
p3236
I1
sVRed Hills salamander
p3237
I1
sVWilliam Nichols (architect)
p3238
I1
sVUpper South
p3239
I1
sVProtestant
p3240
I1
sVBirmingham City Schools
p3241
I1
sVPBS
p3242
I1
sVU.S. Route 45 in Alabama
p3243
I1
sVGary Palmer (politician)
p3244
I1
sVEnhanced Fujita scale
p3245
I1
sVPacific Islander
p3246
I1
sVWAFF (TV)
p3247
I1
sVCinram
p3248
I1
sVU.S. Route 72 in Alabama
p3249
I1
sVTennessee Valley Tigers
p3250
I1
sVProperty tax
p3251
I1
sVInterstate 685
p3252
I1
sVWashington Group International
p3253
I1
sVAlabama Court of Criminal Appeals
p3254
I1
sVfree people of color
p3255
I1
sVIrish American
p3256
I1
sVSolid South
p3257
I1
sVRegions Center (Birmingham)
p3258
I1
sVHuntsville Havoc
p3259
I1
sVGeorgia (U.S. state)
p3260
I1
sVSSAB
p3261
I1
sVReconstruction Era
p3262
I1
sVdiabetes type II
p3263
I1
sVSquare dance
p3264
I1
sVIndian Removal Act
p3265
I1
sVAlabama (people)
p3266
I1
sVConecuh National Forest
p3267
I1
sVCamellia
p3268
I1
sVBarber Motorsports Park
p3269
I1
sVAmerican Revolution
p3270
I1
sVhome rule
p3271
I1
sVRepublican Party (United States)
p3272
I1
sVBarbasol Championship
p3273
I1
sVWZDX
p3274
I1
sVHonda Ridgeline
p3275
I1
sVWABM
p3276
I1
sVAlabama Senate
p3277
I1
sVWachovia
p3278
I1
sVPort of Decatur
p3279
I1
sVIndian people
p3280
I1
sVJeremiah Haralson
p3281
I1
sVNBC
p3282
I1
sVKoasati
p3283
I1
sVHonda Manufacturing of Alabama
p3284
I1
sVMobile County Public School System
p3285
I1
sVInterstate 65
p3286
I1
sVAfrican American
p3287
I1
sVLyn Stuart
p3288
I1
sVDixie
p3289
I1
sVUnion Army
p3290
I1
sVBlaine Amendment
p3291
I1
sVCahaba River National Wildlife Refuge
p3292
I1
sVAirbus A320 family
p3293
I1
sVGulf of Mexico
p3294
I1
sV2011 Super Outbreak
p3295
I1
sVRosenwald School
p3296
I1
sVNippon Steel
p3297
I1
sVNucor
p3298
I1
sVAlabama College of Osteopathic Medicine
p3299
I1
sVVestavia Hills High School
p3300
I1
sVHarbert Management Corporation
p3301
I1
sVAlabama Court of Civil Appeals
p3302
I1
sVTennessee River
p3303
I1
sVAlabama people
p3304
I1
sVNew York Times
p3305
I1
sVAmerican Football
p3306
I1
sVHuntsville Hospital System
p3307
I1
sVAlabama (state song)
p3308
I1
sVHuntsville City Schools
p3309
I1
sVConservative Judaism
p3310
I1
sVcenter of population
p3311
I1
sVAsian American
p3312
I1
sVpeach
p3313
I1
sVOutline of Alabama
p3314
I1
sVThe Rosenwald School Building Fund and Associated Buildings Multiple Property Submission
p3315
I1
sVMormon
p3316
I1
sVNational Park Service
p3317
I1
sVBuddhists
p3318
I1
sVliteracy test
p3319
I1
sVat-large
p3320
I1
sVFrank M. Johnson
p3321
I1
sVU.S. Route 231 in Alabama
p3322
I1
sVAlabama High School Athletic Association
p3323
I1
sVCahaba River
p3324
I1
sVGreat Awakening
p3325
I1
sVWAKA
p3326
I1
sVRosenwald Fund
p3327
I1
sVTuskegee Institute National Historic Site
p3328
I1
sVBaptist Medical Center South
p3329
I1
sVMarble
p3330
I1
sVWells Fargo Tower (Birmingham)
p3331
I1
sVSenior Bowl
p3332
I1
sVappellate court
p3333
I1
sVCouncil on Occupational Education
p3334
I1
sVMercedes-Benz GL-Class
p3335
I1
sVWorld War II
p3336
I1
sVYokohama Tire LPGA Classic
p3337
I1
sVWHNT
p3338
I1
sVBrookley Aeroplex
p3339
I1
sVexecutive branch
p3340
I1
sVArcelorMittal
p3341
I1
sVIndex of Alabama-related articles
p3342
I1
sVSoutheastern Conference
p3343
I1
sVU.S. Route 90 in Alabama
p3344
I1
sVapparel
p3345
I1
sVUnion (American Civil War)
p3346
I1
ssS'Altruism'
p3347
(dp3348
VCD38
p3349
I1
sVAltruism (ethics)
p3350
I1
sVPeace Corps
p3351
I1
sVAhimsa
p3352
I1
sVCambodia
p3353
I1
sVingroup
p3354
I1
sVexistence
p3355
I1
sVRational egoism
p3356
I1
sVfunctional magnetic resonance imaging
p3357
I1
sVLysander Spooner
p3358
I1
sVdivinity
p3359
I1
sVPhilosophy
p3360
I1
sVpublic good
p3361
I1
sVfitness (biology)
p3362
I1
sVenvironmentalism
p3363
I1
sVAdvaita
p3364
I1
sVEthics
p3365
I1
sVrationality
p3366
I1
sVTip (gratuity)
p3367
I1
sVseptal region
p3368
I1
sVSermon on the Plain
p3369
I1
sVBhai Kanhaiya
p3370
I1
sVJudaism
p3371
I1
sVThomas Jay Oord
p3372
I1
sVGroup selection
p3373
I1
sVgratification
p3374
I1
sVMutual aid (organization)
p3375
I1
sVsocial evolution
p3376
I1
sVinclusive fitness
p3377
I1
sVapurva
p3378
I1
sVChristian traditions
p3379
I1
sVSolidarity (sociology)
p3380
I1
sVegoism
p3381
I1
sVbasal forebrain
p3382
I1
sVventromedial prefrontal cortex
p3383
I1
sValms
p3384
I1
sVSelfishness
p3385
I1
sVPathology
p3386
I1
sVCharitable organization
p3387
I1
sVcompetitive altruism
p3388
I1
sVEmpathy-altruism
p3389
I1
sVMisanthropy
p3390
I1
sVpsychopathy
p3391
I1
sVCharity (practice)
p3392
I1
sVBystander effect
p3393
I1
sVEffective altruism
p3394
I1
sVempathy-altruism
p3395
I1
sVScience (journal)
p3396
I1
sVChristianity
p3397
I1
sVPrice equation
p3398
I1
sVPhilanthropy
p3399
I1
sVMarcel Mauss
p3400
I1
sVGod in Jainism
p3401
I1
sVHouston Astrodome
p3402
I1
sVselfishness
p3403
I1
sVDictyostelid
p3404
I1
sVDepression (mood)
p3405
I1
sVJainism
p3406
I1
sVPeter Singer
p3407
I1
sVNicomachean Ethics
p3408
I1
sVpsychological egoism
p3409
I1
sVRandom act of kindness
p3410
I1
sVSikhism
p3411
I1
sVComedy of the commons
p3412
I1
sVPathological Altruism
p3413
I1
sVInclusive fitness
p3414
I1
sVIGF2
p3415
I1
sVevolutionary psychology
p3416
I1
sVLeviticus
p3417
I1
sVGiving Pledge
p3418
I1
sVOXTR
p3419
I1
sVBrahma Sutras
p3420
I1
sVhandicap principle
p3421
I1
sVanxiety (mood)
p3422
I1
sValterity
p3423
I1
sVTit for tat
p3424
I1
sVJournal of Theoretical Biology
p3425
I1
sVpsychologists
p3426
I1
sVvolunteering
p3427
I1
sVutilitarianism
p3428
I1
sVNon-possession
p3429
I1
sVYunus Emre
p3430
I1
sVethology
p3431
I1
sVProceedings of the National Academy of Sciences
p3432
I1
sVamoeba
p3433
I1
sVevolutionary game theory
p3434
I1
sVBeyond Good and Evil
p3435
I1
sVMax Scheler
p3436
I1
sVYehuda Ashlag
p3437
I1
sVDaniel Batson
p3438
I1
sVReciprocity (evolution)
p3439
I1
sVALLAH
p3440
I1
sVDavid Sloan Wilson
p3441
I1
sVBuddhism
p3442
I1
sVReciprocal altruism
p3443
I1
sVKin selection
p3444
I1
sVQuality of life
p3445
I1
sVextrinsic
p3446
I1
sVHumanity (virtue)
p3447
I1
sVWolfgang Stroebe
p3448
I1
sVdescriptive ethics
p3449
I1
sVanterior cingulate
p3450
I1
sVA Darwinian Left
p3451
I1
sVAdrian Raine
p3452
I1
sVsocial exchange theory
p3453
I1
sVAnuvrata
p3454
I1
sVUniversity of Southern California
p3455
I1
sVTzedakah
p3456
I1
sVMerit (Buddhism)
p3457
I1
sVIngroups and outgroups
p3458
I1
sVGuru Gobind Singh
p3459
I1
sVCOMT
p3460
I1
sVSermon on the Mount
p3461
I1
sVvirtue
p3462
I1
sVslime mould
p3463
I1
sVHomelessness
p3464
I1
sVPierre-Joseph Proudhon
p3465
I1
sVGABRB2
p3466
I1
sVSignalling theory
p3467
I1
sVsomatization
p3468
I1
sVFreudian
p3469
I1
sVFamily economics
p3470
I1
sVtit for tat
p3471
I1
sVAntonio R. Damasio
p3472
I1
sVGene-centered view of evolution
p3473
I1
sVMatt Ridley
p3474
I1
sVSt Thomas Aquinas
p3475
I1
sVgame theory
p3476
I1
sVPaul the Apostle
p3477
I1
sVPublic sociology
p3478
I1
sVin-group favoritism
p3479
I1
sVRabia al-Adawiyya
p3480
I1
sVMother Teresa
p3481
I1
sVSocial psychology
p3482
I1
sVHinduism
p3483
I1
sVSoul (Jainism)
p3484
I1
sVAbraham Isaac Kook
p3485
I1
sVThe Origins of Virtue
p3486
I1
sValtruism (ethics)
p3487
I1
sVEarning to give
p3488
I1
sVguru
p3489
I1
sVsociologist
p3490
I1
sVNational Institutes of Health
p3491
I1
sVethical egoism
p3492
I1
sVUniversity of Oregon
p3493
I1
sVPeter Kropotkin
p3494
I1
sVSumma Theologica
p3495
I1
sVProsocial behavior
p3496
I1
sVConsideration
p3497
I1
sVNature (journal)
p3498
I1
sVMesolimbic pathway
p3499
I1
sVEgotism
p3500
I1
sVMoshe Chaim Luzzatto
p3501
I1
sVKabbalah
p3502
I1
sVGeorge R. Price
p3503
I1
sVEmpathy
p3504
I1
sVevolutionary biologists
p3505
I1
sVReciprocity (social psychology)
p3506
I1
sVloyalty
p3507
I1
sVStrong reciprocity
p3508
I1
sVprinciplism
p3509
I1
sVRishabhdev
p3510
I1
sVTirthankara
p3511
I1
sVGospel
p3512
I1
sVantonym
p3513
I1
sVSwami Sivananda
p3514
I1
sVDRD4
p3515
I1
sVDRD5
p3516
I1
sVMahavrata
p3517
I1
sVreputation
p3518
I1
sVMughal Empire
p3519
I1
sVAuguste Comte
p3520
I1
sVphilosopher of science
p3521
I1
sVIslam
p3522
I1
ssS'Autism'
p3523
(dp3524
Vvisually impaired
p3525
I1
sVsocial cognition
p3526
I1
sVspeech and language therapy
p3527
I1
sVSociological and cultural aspects of autism
p3528
I1
sVsocial stigma
p3529
I1
sVbrain
p3530
I1
sVmicroglia
p3531
I1
sVmusic therapy
p3532
I1
sVAutreat
p3533
I1
sVAutism National Committee
p3534
I1
sVRemission (medicine)
p3535
I1
sVSpectrum disorder
p3536
I1
sVDown syndrome
p3537
I1
sVcytokines
p3538
I1
sVneurexin
p3539
I1
sVchromosome abnormality
p3540
I1
sVtuberous sclerosis
p3541
I1
sVSensitivity (tests)
p3542
I1
sVSwiss people
p3543
I1
sVoccupational therapy
p3544
I1
sVTourette syndrome
p3545
I1
sVtoe walking
p3546
I1
sVfunctional neuroimaging
p3547
I1
sVneuropsychological
p3548
I1
sVRain Man
p3549
I1
sVModified Checklist for Autism in Toddlers
p3550
I1
sVMendelian
p3551
I1
sVJ Autism Dev Disord
p3552
I1
sVchild care
p3553
I1
sVReactive attachment disorder
p3554
I1
sVhigh-functioning autism
p3555
I1
sVScreening (medicine)
p3556
I1
sVautism spectrum disorder
p3557
I1
sVinflammation
p3558
I1
sVepilepsy
p3559
I1
sVVienna General Hospital
p3560
I1
sVstructural variation
p3561
I1
sVHeritability of autism
p3562
I1
sVanticonvulsant
p3563
I1
sVDeletion (genetics)
p3564
I1
sVsynapse
p3565
I1
sVmedical conditions
p3566
I1
sVpathophysiology
p3567
I1
sVAutism Diagnostic Interview-Revised
p3568
I1
sVPeter Szatmari
p3569
I1
sVProtein synthesis
p3570
I1
sVNeuropsychol Rev
p3571
I1
sVHans Asperger
p3572
I1
sVneuroligin
p3573
I1
sVprimary care physician
p3574
I1
sVGenotype-first approach
p3575
I1
sVTable Talk (Luther)
p3576
I1
sVInfant
p3577
I1
sVTrends Neurosci
p3578
I1
sVcognitive
p3579
I1
sVecholalia
p3580
I1
sVturn-taking
p3581
I1
sVDSM-5
p3582
I1
sVdysmorphic feature
p3583
I1
sVindependent living
p3584
I1
sVNeurodiversity
p3585
I1
sVClinical genetics
p3586
I1
sVneuronal migration
p3587
I1
sVspecific language impairment
p3588
I1
sVTrait (biology)
p3589
I1
sVmalnutrition
p3590
I1
sVneurodevelopmental disorder
p3591
I1
sVperceptual
p3592
I1
sVfragile X
p3593
I1
sVEarly intensive behavioral intervention
p3594
I1
sVexecutive functions
p3595
I1
sVregressive autism
p3596
I1
sVHyperbaric medicine
p3597
I1
sVMajor depressive disorder
p3598
I1
sVbabbling
p3599
I1
sVpedantic
p3600
I1
sVCan J Neurol Sci
p3601
I1
sVprognosis
p3602
I1
sVschizophrenia
p3603
I1
sVneurology
p3604
I1
sVSensory system
p3605
I1
sVCell adhesion
p3606
I1
sVdendritic spine
p3607
I1
sVMetabolic
p3608
I1
sVgrowth hormone
p3609
I1
sVpsychosocial
p3610
I1
sVConditions comorbid to autism spectrum disorders
p3611
I1
sVdevelopmentally disabled
p3612
I1
sVgrowth factor receptor
p3613
I1
sVChildhood Autism Rating Scale
p3614
I1
sVblindism
p3615
I1
sVSimon Baron-Cohen
p3616
I1
sVBMJ
p3617
I1
sVrefrigerator mother
p3618
I1
sVreview
p3619
I1
sVHuman fertilization
p3620
I1
sVgastrointestinal symptom
p3621
I1
sVIQ
p3622
I1
sVstress (psychological)
p3623
I1
sVmutation
p3624
I1
sVJohns Hopkins Hospital
p3625
I1
sVchild psychology
p3626
I1
sVinfectious disease
p3627
I1
sVgene expression
p3628
I1
sVdiffusion tensor imaging
p3629
I1
sVmiddle-of-the-night insomnia
p3630
I1
sVphenylketonuria
p3631
I1
sVepigenetic
p3632
I1
sVsolvent
p3633
I1
sVteratogens
p3634
I1
sVnon-celiac gluten sensitivity
p3635
I1
sVGene duplication
p3636
I1
sVfusiform face area
p3637
I1
sVphthalates
p3638
I1
sVheavy metal (chemistry)
p3639
I1
sVAn Anthropologist on Mars
p3640
I1
sVdevelopmental disorder
p3641
I1
sVlanguage disorder
p3642
I1
sVneural development
p3643
I1
sVJoint attention
p3644
I1
sVprenatal stress
p3645
I1
sVself-care
p3646
I1
sVmonotropism
p3647
I1
sVethanol
p3648
I1
sVlanguage development
p3649
I1
sVAutism Sunday
p3650
I1
sVEnvironmental factor
p3651
I1
sVvaccine
p3652
I1
sVantipsychotic
p3653
I1
sVtantrum
p3654
I1
sVneuropsychologist
p3655
I1
sVPronoun reversal
p3656
I1
sVPCBs
p3657
I1
sVRegressive autism
p3658
I1
sVsocial norms
p3659
I1
sVWeak central coherence theory
p3660
I1
sVThiomersal controversy
p3661
I1
sVSpecificity (tests)
p3662
I1
sVGenetic disorder
p3663
I1
sVAutism Speaks
p3664
I1
sVneuroimaging
p3665
I1
sVAutism Diagnostic Observation Schedule
p3666
I1
sVvalproic acid
p3667
I1
sVMinor physical anomalies
p3668
I1
sVbrominated flame retardant
p3669
I1
sVLeo Kanner
p3670
I1
sVneurogenetic
p3671
I1
sVexecutive dysfunction
p3672
I1
sVAutistic Pride Day
p3673
I1
sVchildhood
p3674
I1
sVHypotonia
p3675
I1
sVpervasive developmental disorder
p3676
I1
sVNature Reviews Genetics
p3677
I1
sVferal child
p3678
I1
sVfragile X syndrome
p3679
I1
sVSyndrome
p3680
I1
sVmetabotropic glutamate receptors
p3681
I1
sVAsperger syndrome
p3682
I1
sVcommunication
p3683
I1
sVIntellectual disability
p3684
I1
sVbrain scan
p3685
I1
sVNew Latin
p3686
I1
sVsocial communication
p3687
I1
sVControversies in autism
p3688
I1
sVpregnancy
p3689
I1
sVcocaine
p3690
I1
sVRett syndrome
p3691
I1
sVmagnetoencephalography
p3692
I1
sVMMR vaccine controversy
p3693
I1
sVLight It Up Blue
p3694
I1
sVDermatillomania
p3695
I1
sVantidepressant
p3696
I1
sVneurochemical
p3697
I1
sVAnxiety disorder
p3698
I1
sVintellectual disability
p3699
I1
sVSavant syndrome
p3700
I1
sVAttention deficit hyperactivity disorder
p3701
I1
sVchromosome abnormalities
p3702
I1
sVDonald Triplett
p3703
I1
sVGesture
p3704
I1
sVDSM-III
p3705
I1
sVEugen Bleuler
p3706
I1
sVWorld Autism Awareness Day
p3707
I1
sVChromosomal inversion
p3708
I1
sVaripiprazole
p3709
I1
sVdevelopmental milestones
p3710
I1
sVCauses of autism
p3711
I1
sV1q21.1 deletion syndrome
p3712
I1
sVPDD not otherwise specified
p3713
I1
sVCompulsive behavior
p3714
I1
sVcasein-free diet
p3715
I1
sVDNA
p3716
I1
sVefficacy
p3717
I1
sVcomplementary and alternative medicine
p3718
I1
sVpesticide
p3719
I1
sVrisperidone
p3720
I1
sVteratogen
p3721
I1
sVspecial education
p3722
I1
sVinfection
p3723
I1
sVVictor of Aveyron
p3724
I1
sVserotonin
p3725
I1
sVeye contact
p3726
I1
sVWild Boy of Aveyron
p3727
I1
sVInternet Movie Database
p3728
I1
sVPsychiatry
p3729
I1
sVmetabolic defect
p3730
I1
sVInt J Dev Neurosci
p3731
I1
sVamygdala
p3732
I1
sVgenetic screening
p3733
I1
sVcerebellum
p3734
I1
sVAlternative therapies for developmental and learning disabilities
p3735
I1
sVbirth defect
p3736
I1
sVinsomnia
p3737
I1
sVphenols
p3738
I1
sVElectroencephalography
p3739
I1
sVAsperger Syndrome
p3740
I1
sVnonverbal autism
p3741
I1
sVCerebral hemisphere
p3742
I1
sVHuman embryogenesis
p3743
I1
sVDSM-III-R
p3744
I1
sVnerve cell
p3745
I1
sVpediatrician
p3746
I1
sVChecklist for Autism in Toddlers
p3747
I1
sVmedical specialist
p3748
I1
sVbehavior
p3749
I1
sVmedical care
p3750
I1
sVmirror neuron system
p3751
I1
sVsocial support
p3752
I1
sVrubella vaccine
p3753
I1
sVRett Syndrome
p3754
I1
sVAutism Society of America
p3755
I1
sVNeuroanatomical
p3756
I1
sVtheory of mind
p3757
I1
sVApraxia
p3758
I1
sVPediatr Clin North Am
p3759
I1
sVneuron
p3760
I1
sVpsychoactive drug
p3761
I1
sVSynapse
p3762
I1
sVAssociation areas
p3763
I1
sVChildhood disintegrative disorder
p3764
I1
sVpervasive developmental disorder not otherwise specified
p3765
I1
sVcure
p3766
I1
sVInhibition Theory
p3767
I1
sVsplinter skill
p3768
I1
sVimmune system
p3769
I1
sVSelf-injury
p3770
I1
sVchildhood disintegrative disorder
p3771
I1
sVCerebral cortex
p3772
I1
sVdeveloped countries
p3773
I1
sVtask-positive network
p3774
I1
sVEnviron Health Perspect
p3775
I1
sVpediatrics
p3776
I1
sVself-referential
p3777
I1
sVapplied behavior analysis
p3778
I1
sVMedical diagnosis
p3779
I1
sVMartin Luther
p3780
I1
sVautism spectrum
p3781
I1
sVJean Marc Gaspard Itard
p3782
I1
sVfrontal lobe
p3783
I1
sVSelf-determination theory
p3784
I1
sVClin Infect Dis
p3785
I1
sVworking memory
p3786
I1
sVestate planning
p3787
I1
sVphenotype
p3788
I1
sVEthanol
p3789
I1
sVcell adhesion
p3790
I1
sVnervous system
p3791
I1
sVbehavior therapy
p3792
I1
sVstimulant
p3793
I1
sVevent-related potential
p3794
I1
sVfMRI
p3795
I1
sVrubella
p3796
I1
sVsystematic review
p3797
I1
sVICD-10
p3798
I1
sVhearing impairment
p3799
I1
sVdefault network
p3800
I1
sVsocial skills
p3801
I1
sVgestation
p3802
I1
sVQuality of life
p3803
I1
sVTEACCH
p3804
I1
sVCell (journal)
p3805
I1
sVmeiosis
p3806
I1
sVgluten-free diet
p3807
I1
sVEpilepsy
p3808
I1
sVnet present value
p3809
I1
sVpsychology
p3810
I1
sVNeurosci Biobehav Rev
p3811
I1
sVPDD-NOS
p3812
I1
sVheritability
p3813
I1
sVair pollution
p3814
I1
sVOliver Sacks
p3815
I1
sVinborn errors of metabolism
p3816
I1
sVdifferential diagnosis
p3817
I1
sVneurotypical
p3818
I1
sVillicit drug
p3819
I1
sVUnited States Preventive Services Task Force
p3820
I1
sVAttachment (psychology)
p3821
I1
sVNational Health Service
p3822
I1
sVAutism rights movement
p3823
I1
sVTemple Grandin
p3824
I1
sVchelation therapy
p3825
I1
sVpsychiatry
p3826
I1
sVStereotypy
p3827
I1
sVchildhood immunizations
p3828
I1
sVInterpersonal relationship
p3829
I1
ssS'Academy Award for Best Production Design'
p3830
(dp3831
VAddams Family Values
p3832
I1
sVHamish Purdy
p3833
I1
sVLaurence Bennett
p3834
I1
sVJohn Bryan (art director)
p3835
I1
sVJames Basevi
p3836
I1
sVBlackboard Jungle
p3837
I1
sVH. Motsumoto
p3838
I1
sVBlood and Sand (1941 film)
p3839
I1
sVHal Gausman
p3840
I1
sVShane Vieau
p3841
I1
sVEve Stewart
p3842
I1
sVLazare Meerson
p3843
I1
sVFantastic Beasts and Where to Find Them (film)
p3844
I1
sVThe Diary of Anne Frank (1959 film)
p3845
I1
sVJan Pascale
p3846
I1
sVRichard Day (art director)
p3847
I1
sVRaphael Bretton
p3848
I1
sV2011 in film
p3849
I1
sVDoug Mowat (set director)
p3850
I1
sVAnna Lynch-Robinson
p3851
I1
sVJack Okey
p3852
I1
sVJohn H. Anderson
p3853
I1
sVJack Martin Smith
p3854
I1
sVBernard Herzbrun
p3855
I1
sV1944 in film
p3856
I1
sVRobert Cartwright
p3857
I1
sVCitizen Kane
p3858
I1
sVGary Fettis
p3859
I1
sVThe Climax
p3860
I1
sVCyrano de Bergerac (1990 film)
p3861
I1
sVLisa Dean Kavanaugh
p3862
I1
sV12th Academy Awards
p3863
I1
sVJeffrey Beecroft
p3864
I1
sVDances with Wolves
p3865
I1
sV2008 in film
p3866
I1
sVJames L. Schoppe
p3867
I1
sVGary Brink
p3868
I1
sVDead End (1937 film)
p3869
I1
sVAline Bonetto
p3870
I1
sVThe Awakening (1928 film)
p3871
I1
sVRaintree County (film)
p3872
I1
sVThe Last Angry Man
p3873
I1
sVCarefree (film)
p3874
I1
sVThe Music Man (1962 film)
p3875
I1
sVCarmen Dillon
p3876
I1
sVTransatlantic (1931 film)
p3877
I1
sVRobert M. Haas
p3878
I1
sVJohn Austin (art director)
p3879
I1
sVEdward Stewart (set decorator)
p3880
I1
sVRoman Holiday (1953 film)
p3881
I1
sVThat Touch of Mink
p3882
I1
sVLionel Couch
p3883
I1
sV38th Academy Awards
p3884
I1
sVLaura (1944 film)
p3885
I1
sVCarl Biddiscombe
p3886
I1
sVVisit to a Small Planet
p3887
I1
sVThe Country Girl (1954 film)
p3888
I1
sVDodsworth (film)
p3889
I1
sVGiant (1956 film)
p3890
I1
sVA Room with a View (1985 film)
p3891
I1
sVGaslight (1944 film)
p3892
I1
sVThe Shape of Water
p3893
I1
sVCareer (1959 film)
p3894
I1
sVThis Is the Army
p3895
I1
sVJulia Heron
p3896
I1
sV1940 in film
p3897
I1
sVLisa Thompson (set decorator)
p3898
I1
sVJeff Melvin
p3899
I1
sVWinterset (film)
p3900
I1
sVRed Garters (film)
p3901
I1
sVDante Ferretti
p3902
I1
sVGene Callahan
p3903
I1
sVThe Sting
p3904
I1
sVWar Horse (film)
p3905
I1
sVHoward Bristol
p3906
I1
sVThe Revenant (2015 film)
p3907
I1
sVThe Merry Widow (1952 film)
p3908
I1
sVAnna Karenina (2012 film)
p3909
I1
sVWilliam S. Darling
p3910
I1
sVAlexander Toluboff
p3911
I1
sVEugenio Caballero
p3912
I1
sVLincoln (film)
p3913
I1
sVThe Greatest Story Ever Told
p3914
I1
sVHein Heckroth
p3915
I1
sVThe Sunshine Boys (1975 film)
p3916
I1
sV61st Academy Awards
p3917
I1
sVEd Graves
p3918
I1
sVPal Joey (film)
p3919
I1
sVGene Callahan (motion picture art director)
p3920
I1
sVThe Foxes of Harrow
p3921
I1
sVNicholas and Alexandra
p3922
I1
sVDark Command
p3923
I1
sVLionel Banks
p3924
I1
sVAnna and the King of Siam (film)
p3925
I1
sVFred M. MacLean
p3926
I1
sV1953 in film
p3927
I1
sVPaul Huldschinsky
p3928
I1
sV1930 in film
p3929
I1
sVPicnic (1955 film)
p3930
I1
sVJoseph McMillan Johnson
p3931
I1
sVWho Framed Roger Rabbit
p3932
I1
sVRobert J. Franco
p3933
I1
sVMichael Corenblith
p3934
I1
sVJack Otterson
p3935
I1
sVGosford Park
p3936
I1
sVRudolf Sternad
p3937
I1
sVFrank E. Hughes
p3938
I1
sVRobert Priestley
p3939
I1
sVHook (film)
p3940
I1
sVCaryl Heller
p3941
I1
sVThe Prestige (film)
p3942
I1
sVTambi Larsen
p3943
I1
sVBrian Savegar
p3944
I1
sVSouls at Sea
p3945
I1
sVPerry Ferguson
p3946
I1
sVThe Last Samurai
p3947
I1
sV66th Academy Awards
p3948
I1
sVHerman Rosse
p3949
I1
sV72nd Academy Awards
p3950
I1
sVRena DeAngelo
p3951
I1
sVTony Walton
p3952
I1
sVJosie MacAvin
p3953
I1
sVArthur Lonergan
p3954
I1
sVReap the Wild Wind
p3955
I1
sVHugo (film)
p3956
I1
sVThe Curious Case of Benjamin Button (film)
p3957
I1
sVMaurice Ransford
p3958
I1
sVSpartacus (film)
p3959
I1
sVThe Hustler (film)
p3960
I1
sVThe English Patient (film)
p3961
I1
sVAliens (film)
p3962
I1
sV1954 in film
p3963
I1
sVVatel (film)
p3964
I1
sVInto the Woods (film)
p3965
I1
sVRobert Peterson (art director)
p3966
I1
sVA Farewell to Arms (1932 film)
p3967
I1
sVAnne Kuljian
p3968
I1
sVTravels with My Aunt (film)
p3969
I1
sVElliot Scott
p3970
I1
sV84th Academy Awards
p3971
I1
sVJohn DuCasse Schultze
p3972
I1
sVVan Nest Polglase
p3973
I1
sV1949 in film
p3974
I1
sVAssheton Gorton
p3975
I1
sVJoseph Hurley (art director)
p3976
I1
sV1956 in film
p3977
I1
sVRestoration (1995 film)
p3978
I1
sVLyle R. Wheeler
p3979
I1
sVRobert F. Boyle
p3980
I1
sVArizona (1940 film)
p3981
I1
sVLinda DeScenna
p3982
I1
sVThe Picture of Dorian Gray (1945 film)
p3983
I1
sVThe Merry Widow (1934 film)
p3984
I1
sVRalph Berger
p3985
I1
sVJudy Farr (set decorator)
p3986
I1
sV42nd Academy Awards
p3987
I1
sVGreat Expectations (1946 film)
p3988
I1
sVWar and Peace (film series)
p3989
I1
sVFiddler on the Roof (film)
p3990
I1
sVTo Catch a Thief
p3991
I1
sVPaul Sylbert
p3992
I1
sVIt Started in Naples
p3993
I1
sVGene Allen (art director)
p3994
I1
sV1931 in film
p3995
I1
sVHal Pereira
p3996
I1
sVIan Whittaker
p3997
I1
sVAnne of the Thousand Days
p3998
I1
sVJames W. Payne
p3999
I1
sVGangs of New York
p4000
I1
sVLost Horizon (1937 film)
p4001
I1
sV15th Academy Awards
p4002
I1
sVRichard H. Riedel
p4003
I1
sV34th Academy Awards
p4004
I1
sVCarolyn Scott
p4005
I1
sVSabrina (1954 film)
p4006
I1
sV28th Academy Awards
p4007
I1
sVStuart Craig
p4008
I1
sVJohn Moore (designer)
p4009
I1
sVDick Pefferle
p4010
I1
sVAcademy of Motion Picture Arts and Sciences
p4011
I1
sVMarie-Laure Valla
p4012
I1
sVLawrence of Arabia (film)
p4013
I1
sVBo Welch
p4014
I1
sVKing Kong (2005 film)
p4015
I1
sVStar Wars (film)
p4016
I1
sVStuart Reiss
p4017
I1
sVAlibi (1929 film)
p4018
I1
sVLawrence G. Paull
p4019
I1
sV7th Heaven (1927 film)
p4020
I1
sVBarry Lyndon
p4021
I1
sVWuthering Heights (1939 film)
p4022
I1
sVHoliday (1938 film)
p4023
I1
sVLadies in Retirement
p4024
I1
sVMad About Music
p4025
I1
sVArrival (film)
p4026
I1
sVMartin Obzina
p4027
I1
sVThe King and I (1956 film)
p4028
I1
sVErnie Archer
p4029
I1
sVBlade Runner
p4030
I1
sVSummer and Smoke (film)
p4031
I1
sVClaude Carpenter
p4032
I1
sVPierre Guffroy
p4033
I1
sVGarrett Lewis
p4034
I1
sVGambit (1966 film)
p4035
I1
sVJim Morahan
p4036
I1
sV2007 in film
p4037
I1
sVThe Proud and Profane
p4038
I1
sVRobert W. Laing
p4039
I1
sVRodger Maus
p4040
I1
sVBrazil (1985 film)
p4041
I1
sV23rd Academy Awards
p4042
I1
sVWilliam Kellner
p4043
I1
sVBeth Rubino
p4044
I1
sVShakespeare in Love
p4045
I1
sVKismet (1944 film)
p4046
I1
sVUnited Artists
p4047
I1
sVMy Favorite Wife
p4048
I1
sVHamlet (1948 film)
p4049
I1
sVMartin Childs
p4050
I1
sV1967 in film
p4051
I1
sVHud (1963 film)
p4052
I1
sVThe Right Stuff (film)
p4053
I1
sVOur Town (1940 film)
p4054
I1
sV58th Academy Awards
p4055
I1
sVPepe (film)
p4056
I1
sV2015 in film
p4057
I1
sVLyle Reifsnider
p4058
I1
sVDean Tavoularis
p4059
I1
sV1st Academy Awards
p4060
I1
sVTed Smith (art director)
p4061
I1
sVThe Apartment
p4062
I1
sVExecutive Suite
p4063
I1
sVWard Preston
p4064
I1
sV85th Academy Awards
p4065
I1
sVDick Tracy (1990 film)
p4066
I1
sVThe Rose Tattoo (film)
p4067
I1
sV2006 in film
p4068
I1
sVJohn Barry (set designer)
p4069
I1
sVBrian Morris (art director)
p4070
I1
sVThe Love Parade
p4071
I1
sVSons and Lovers (1960 film)
p4072
I1
sVRobert Luthardt
p4073
I1
sVCharles D. Hall
p4074
I1
sVTrue Grit (2010 film)
p4075
I1
sV60th Academy Awards
p4076
I1
sVLewis J. Rachmil
p4077
I1
sVNine (2009 live-action film)
p4078
I1
sVDonald Graham Burt
p4079
I1
sVRobert Drumheller
p4080
I1
sVCalifornia Suite (film)
p4081
I1
sVAnthony Mondell
p4082
I1
sVRoad to Perdition
p4083
I1
sVHarry Horner
p4084
I1
sVThe Man Who Would Be King (film)
p4085
I1
sV48th Academy Awards
p4086
I1
sVRay Moyer
p4087
I1
sVPride and Prejudice (1940 film)
p4088
I1
sVJocelyn Herbert
p4089
I1
sVStuart Wurtzel
p4090
I1
sV2017 in film
p4091
I1
sVJack Maxsted
p4092
I1
sVKundun
p4093
I1
sV1933 in film
p4094
I1
sVRa Vincent
p4095
I1
sVMichael D. Ford
p4096
I1
sV1982 in film
p4097
I1
sVThe North Star (1943 film)
p4098
I1
sVRashomon (film)
p4099
I1
sVJack Stephens (set decorator)
p4100
I1
sVRussell A. Gausman
p4101
I1
sVThe Untouchables (film)
p4102
I1
sVDan Hennah
p4103
I1
sVThat Hamilton Woman
p4104
I1
sVRoss Bellah
p4105
I1
sVJohn Hughes (art director)
p4106
I1
sVKagemusha
p4107
I1
sVPilar Revuelta
p4108
I1
sVK. K. Barrett
p4109
I1
sV70th Academy Awards
p4110
I1
sVHenry V (1944 film)
p4111
I1
sVGordon Wiles
p4112
I1
sVFay Babcock
p4113
I1
sVGeorge C. Jenkins
p4114
I1
sVJohn Bonar
p4115
I1
sVJames J. Murakami
p4116
I1
sVThe Magnificent Ambersons (film)
p4117
I1
sVMarty (film)
p4118
I1
sVRevolutionary Road (film)
p4119
I1
sVMidnight in Paris
p4120
I1
sVRichard A. Pefferle
p4121
I1
sVChaplin (film)
p4122
I1
sVBrigitte Broch
p4123
I1
sVThe Last Tycoon (1976 film)
p4124
I1
sVCome Blow Your Horn (film)
p4125
I1
sVThe Wiz (film)
p4126
I1
sVOn the Waterfront
p4127
I1
sVAlan Lee (illustrator)
p4128
I1
sV2013 in film
p4129
I1
sVSarah Greenwood
p4130
I1
sVThe Shanghai Gesture
p4131
I1
sV76th Academy Awards
p4132
I1
sVThe Americanization of Emily
p4133
I1
sVFor Whom the Bell Tolls (film)
p4134
I1
sV29th Academy Awards
p4135
I1
sVThe Magnificent Brute
p4136
I1
sVAddress Unknown (1944 film)
p4137
I1
sVThomas Little
p4138
I1
sV1970 in film
p4139
I1
sVJanice Blackie-Goodine
p4140
I1
sVThe Adventures of Tom Sawyer (1938 film)
p4141
I1
sVJess Gonchor
p4142
I1
sVSleepy Hollow (film)
p4143
I1
sVSherlock Holmes (2009 film)
p4144
I1
sVApollo 13 (film)
p4145
I1
sVSvengali (1931 film)
p4146
I1
sV79th Academy Awards
p4147
I1
sVTom Pedigo
p4148
I1
sVArthur Lawson (designer)
p4149
I1
sVRaoul Pene du Bois
p4150
I1
sVGeoffrey Kirkland
p4151
I1
sVCimarron (1931 film)
p4152
I1
sVMoulin Rouge (1952 film)
p4153
I1
sV1999 in film
p4154
I1
sVA Thousand and One Nights (1945 film)
p4155
I1
sVAnna and the King
p4156
I1
sVHannah and Her Sisters
p4157
I1
sVThe Good Shepherd (film)
p4158
I1
sVJohn M. Dwyer
p4159
I1
sVThe Bridge of San Luis Rey (1929 film)
p4160
I1
sVDown Argentine Way
p4161
I1
sVArrowsmith (film)
p4162
I1
sVRobert de Vestel
p4163
I1
sVStephen Goosson
p4164
I1
sVRoy Walker (production designer)
p4165
I1
sVRoland Anderson
p4166
I1
sV1947 in film
p4167
I1
sVTom Sanders (art director)
p4168
I1
sVFlower Drum Song (film)
p4169
I1
sVDario Simoni
p4170
I1
sVMichael Stringer
p4171
I1
sVFerdinando Scarfiotti
p4172
I1
sV31st Academy Awards
p4173
I1
sV64th Academy Awards
p4174
I1
sVPeriod of Adjustment (film)
p4175
I1
sVHarry Potter and the Goblet of Fire (film)
p4176
I1
sV22nd Academy Awards
p4177
I1
sV1945 in film
p4178
I1
sV1997 in film
p4179
I1
sV46th Academy Awards
p4180
I1
sVInteriors
p4181
I1
sVMitchell Leisen
p4182
I1
sVFritz Maurischat
p4183
I1
sV3rd Academy Awards
p4184
I1
sVStep Lively (1944 film)
p4185
I1
sVCaptains of the Clouds
p4186
I1
sVBlade Runner 2049
p4187
I1
sVThe China Syndrome
p4188
I1
sVTitanic (1997 film)
p4189
I1
sV1952 in film
p4190
I1
sVThe Sea Hawk (1940 film)
p4191
I1
sVBedknobs and Broomsticks
p4192
I1
sVDonald M. Ashton
p4193
I1
sVTerms of Endearment
p4194
I1
sVVictor J. Zolfo
p4195
I1
sVMarc Frederix
p4196
I1
sVIra S. Webb
p4197
I1
sV24th Academy Awards
p4198
I1
sVThe Affairs of Cellini
p4199
I1
sVLeave Her to Heaven
p4200
I1
sVVladimir Uvarov
p4201
I1
sVDynamite (1929 film)
p4202
I1
sVMaurice Pelling
p4203
I1
sVJudy Becker
p4204
I1
sVRebecca (1940 film)
p4205
I1
sVA. Earl Hedrick
p4206
I1
sVHarry Cordwell
p4207
I1
sVSunrise at Campobello
p4208
I1
sVFrank McKelvy
p4209
I1
sV1935 in film
p4210
I1
sVYoung Winston
p4211
I1
sV17th Academy Awards
p4212
I1
sVSince You Went Away
p4213
I1
sVMickey S. Michaels
p4214
I1
sVJohnny Belinda (1948 film)
p4215
I1
sV1943 in film
p4216
I1
sV62nd Academy Awards
p4217
I1
sV1939 in film
p4218
I1
sVAnastasia Masaro
p4219
I1
sVAndy Nicholson (production designer)
p4220
I1
sVLa traviata (1983 film)
p4221
I1
sV80th Academy Awards
p4222
I1
sVThe Danish Girl (film)
p4223
I1
sVHenry Grace
p4224
I1
sV1959 in film
p4225
I1
sVAmerican Hustle
p4226
I1
sV32nd Academy Awards
p4227
I1
sVThe Snows of Kilimanjaro (1952 film)
p4228
I1
sVTony Inglis
p4229
I1
sVAuntie Mame (film)
p4230
I1
sVMichael Carlin (art director)
p4231
I1
sVThe Facts of Life (film)
p4232
I1
sVGrace Gregory
p4233
I1
sVThe Prince of Tides
p4234
I1
sVWilliam Tuntke
p4235
I1
sVLeland Fuller
p4236
I1
sV49th Academy Awards
p4237
I1
sVRick Carter
p4238
I1
sV27th Academy Awards
p4239
I1
sVJ. McMillan Johnson
p4240
I1
sVAlfred Herman
p4241
I1
sVMichael Seirton
p4242
I1
sVLilly Kilvert
p4243
I1
sV56th Academy Awards
p4244
I1
sVKing Rat (1965 film)
p4245
I1
sV2002 in film
p4246
I1
sVEvita (1996 film)
p4247
I1
sV1948 in film
p4248
I1
sVSimon Bright
p4249
I1
sVLove Is a Many-Splendored Thing (film)
p4250
I1
sVNathan Crowley
p4251
I1
sVRepublic Pictures
p4252
I1
sV1998 in film
p4253
I1
sVGianni Quaranta
p4254
I1
sVWee Willie Winkie (film)
p4255
I1
sVHow the West Was Won (film)
p4256
I1
sVEdward Ray Robinson
p4257
I1
sVThe Dark Knight (film)
p4258
I1
sVEdwin B. Willis
p4259
I1
sVHugh Hunt
p4260
I1
sVBlack Narcissus
p4261
I1
sVFrank R. McKelvy
p4262
I1
sV1995 in film
p4263
I1
sVAnthony Masters
p4264
I1
sVJoseph Wright (art director)
p4265
I1
sVPleasantville (film)
p4266
I1
sVCaptain Fury
p4267
I1
sV9th Academy Awards
p4268
I1
sVKim Sinclair
p4269
I1
sVMel Bourne
p4270
I1
sVDestination Moon (film)
p4271
I1
sVThe Patriot (1928 film)
p4272
I1
sVMark-Lee Kirk
p4273
I1
sVLa Ronde (1950 film)
p4274
I1
sVWalter H. Tyler
p4275
I1
sVHans Dreier
p4276
I1
sV1971 in film
p4277
I1
sVTom Jones (1963 film)
p4278
I1
sVMaggie Gray
p4279
I1
sVWalter M. Scott
p4280
I1
sVMichael Seymour (production designer)
p4281
I1
sVLouisiana Purchase (film)
p4282
I1
sVLa Dolce Vita
p4283
I1
sVMy Gal Sal
p4284
I1
sVRudolph Sternad
p4285
I1
sV40th Academy Awards
p4286
I1
sVAlexander Golitzen
p4287
I1
sVThe Golden Compass (film)
p4288
I1
sVRalph S. Hurst
p4289
I1
sVThe Last Emperor
p4290
I1
sVThoroughly Modern Millie
p4291
I1
sVRoss J. Dowd
p4292
I1
sVBitter Sweet (1940 film)
p4293
I1
sVThe Island at the Top of the World
p4294
I1
sVJust Imagine
p4295
I1
sVLee Sandales
p4296
I1
sVIrene Sharaff
p4297
I1
sV53rd Academy Awards
p4298
I1
sVBen Van Os
p4299
I1
sVThe Color of Money (film)
p4300
I1
sVGil Parrondo
p4301
I1
sVRoger Christian (filmmaker)
p4302
I1
sVRandall Duell
p4303
I1
sVBrian Ackland-Snow
p4304
I1
sVGeorgi Koshelev
p4305
I1
sVThe Life of Emile Zola
p4306
I1
sVTrisha Edwards
p4307
I1
sVCarl Anderson (art director)
p4308
I1
sVRobert Stromberg
p4309
I1
sV1983 in film
p4310
I1
sV25th Academy Awards
p4311
I1
sVGeorge DeTitta Sr.
p4312
I1
sVThe Dove (1927 film)
p4313
I1
sVTony Reading
p4314
I1
sVGlory (1989 film)
p4315
I1
sV2nd Academy Awards
p4316
I1
sVKerrie Brown
p4317
I1
sVPeter Lando
p4318
I1
sVThe Martian (film)
p4319
I1
sVRain Man
p4320
I1
sV2000 in film
p4321
I1
sVNorth by Northwest
p4322
I1
sVJohn Vallone
p4323
I1
sVRobert Emmet Smith
p4324
I1
sVCharles S. Thompson
p4325
I1
sVPaul Denham Austerberry
p4326
I1
sVF. Keogh Gleason
p4327
I1
sVCatherine Martin (designer)
p4328
I1
sVThe Gospel According to St. Matthew (film)
p4329
I1
sVSweet Charity (film)
p4330
I1
sVBrigadoon (film)
p4331
I1
sVStephen Grimes
p4332
I1
sVCarrie (1952 film)
p4333
I1
sVLove Affair (1939 film)
p4334
I1
sV47th Academy Awards
p4335
I1
sVGemma Jackson
p4336
I1
sVFrancesca Lo Schiavo
p4337
I1
sVMadame Curie (film)
p4338
I1
sVLeon Harris (art director)
p4339
I1
sVStephen A. Seymour
p4340
I1
sV75th Academy Awards
p4341
I1
sVDreamgirls (film)
p4342
I1
sV1964 in film
p4343
I1
sVThe Mission (1986 film)
p4344
I1
sVKnights of the Round Table (film)
p4345
I1
sVCarroll Clark
p4346
I1
sVThe Unsinkable Molly Brown (film)
p4347
I1
sV4th Academy Awards
p4348
I1
sV7th Academy Awards
p4349
I1
sVThe Man with the Golden Arm
p4350
I1
sVSergeant York (film)
p4351
I1
sVAlgiers (film)
p4352
I1
sVManhattan Merry-Go-Round (film)
p4353
I1
sVRobert Haas (director)
p4354
I1
sVSilver Queen
p4355
I1
sVMutiny on the Bounty (1962 film)
p4356
I1
sVCasey Roberts
p4357
I1
sVSunset Boulevard (film)
p4358
I1
sVWilliam Craig Smith
p4359
I1
sVEugenio Zanetti
p4360
I1
sVLinda Descenna
p4361
I1
sVAnton Grot
p4362
I1
sVLarry Dias
p4363
I1
sVHarold Michelson
p4364
I1
sVRalph Hammeras
p4365
I1
sVJoanne Woollard
p4366
I1
sVKen Adam
p4367
I1
sVThe Empire Strikes Back
p4368
I1
sVMichael Relph
p4369
I1
sVPhil Abramson
p4370
I1
sVJulie Ochipinti
p4371
I1
sV2010 (film)
p4372
I1
sVJohn Truscott
p4373
I1
sVEdward G. Boyle
p4374
I1
sVJohn W. Corso
p4375
I1
sVLady Sings the Blues (film)
p4376
I1
sVElven Webb
p4377
I1
sVDon Greenwood Jr.
p4378
I1
sVTom Morahan
p4379
I1
sV1936 in film
p4380
I1
sV11th Academy Awards
p4381
I1
sVJames L. Berkey
p4382
I1
sVAnnie Get Your Gun (film)
p4383
I1
sVHer (film)
p4384
I1
sVJerry Wunderlich
p4385
I1
sVThe Talk of the Town (1942 film)
p4386
I1
sVThe Son of Monte Cristo
p4387
I1
sV1962 in film
p4388
I1
sVRoger Ford (production designer)
p4389
I1
sVThe Dark Angel (1935 film)
p4390
I1
sV1996 in film
p4391
I1
sVJ. Michael Riva
p4392
I1
sVRaoul Pene Du Bois
p4393
I1
sVDennis Gassner
p4394
I1
sVWilliam Hutchinson (art director)
p4395
I1
sVCasanova Brown
p4396
I1
sVAnthony D. G. Pratt
p4397
I1
sVCleopatra (1963 film)
p4398
I1
sVJulius Caesar (1953 film)
p4399
I1
sVSanto Loquasto
p4400
I1
sVLife with Father (film)
p4401
I1
sVThe Andromeda Strain (film)
p4402
I1
sVInterview with the Vampire (film)
p4403
I1
sVBAFTA Award for Best Production Design
p4404
I1
sVGiuseppe Mariani
p4405
I1
sVWilliam A. Horning
p4406
I1
sVGeorge B. Chan
p4407
I1
sVMarvin March
p4408
I1
sV5th Academy Awards
p4409
I1
sV35th Academy Awards
p4410
I1
sVBecket (1964 film)
p4411
I1
sVSis Hopkins (1941 film)
p4412
I1
sVYentl (film)
p4413
I1
sVHeather Loeffler
p4414
I1
sVWiard Ihnen
p4415
I1
sVPeter R. Romero
p4416
I1
sVKatie Spencer
p4417
I1
sVFranco Zeffirelli
p4418
I1
sVThe Great Gatsby (2013 film)
p4419
I1
sVMerrill Pye
p4420
I1
sVMister Buddwing
p4421
I1
sVThe Spy Who Loved Me (film)
p4422
I1
sVCrispian Sallis
p4423
I1
sVJohn Graysmark
p4424
I1
sVOliver Emert
p4425
I1
sVFunny Face
p4426
I1
sVVictor Victoria
p4427
I1
sVThe Little Foxes (film)
p4428
I1
sVThe Pigeon That Took Rome
p4429
I1
sVWilliam Glasgow
p4430
I1
sVRadio Days
p4431
I1
sVTerence Marsh
p4432
I1
sV37th Academy Awards
p4433
I1
sVRoss Dowd
p4434
I1
sV44th Academy Awards
p4435
I1
sVGabriel Scognamillo
p4436
I1
sV1966 in film
p4437
I1
sVGuy Hendrix Dyas
p4438
I1
sVHaldane Douglas
p4439
I1
sV68th Academy Awards
p4440
I1
sVPsycho (1960 film)
p4441
I1
sVThe Cardinal
p4442
I1
sVThere Will Be Blood
p4443
I1
sVEdward Carrere
p4444
I1
sVHugh Scaife
p4445
I1
sVElio Altramura
p4446
I1
sVBeaches (film)
p4447
I1
sVLeslie Bloom
p4448
I1
sVThe Shootist
p4449
I1
sV1984 in film
p4450
I1
sVTempest (1928 film)
p4451
I1
sVJohn De Cuir
p4452
I1
sVBeverley Dunn (set decorator)
p4453
I1
sVForeign Correspondent (film)
p4454
I1
sVRichard Sylbert
p4455
I1
sV18th Academy Awards
p4456
I1
sVThe Aviator (2004 film)
p4457
I1
sVStreet Angel (1928 film)
p4458
I1
sVWilfred Shingleton
p4459
I1
sVFanny and Alexander
p4460
I1
sVAlexandre Trauner
p4461
I1
sVInterstellar (film)
p4462
I1
sVMan of Conquest
p4463
I1
sVArthur Jeph Parker
p4464
I1
sVDoctor Zhivago (film)
p4465
I1
sVThe Vagabond King (1930 film)
p4466
I1
sV8th Academy Awards
p4467
I1
sVJohn S. Detlie
p4468
I1
sVVassilis Photopoulos
p4469
I1
sVEarthquake (1974 film)
p4470
I1
sVMission to Moscow
p4471
I1
sVHarry Lange (film designer)
p4472
I1
sVGeorge R. Nelson
p4473
I1
sVCecil Beaton
p4474
I1
sVThe Lives of a Bengal Lancer (film)
p4475
I1
sVDavid and Bathsheba (film)
p4476
I1
sVMarie Antoinette (1938 film)
p4477
I1
sVThe Quiet Man
p4478
I1
sVMen in Black (1997 film)
p4479
I1
sVThousands Cheer
p4480
I1
sVNorman Rockett
p4481
I1
sVEdward S. Haworth
p4482
I1
sVThe Wonderful World of the Brothers Grimm
p4483
I1
sVWilliam Kiernan
p4484
I1
sVHerbert Strabel
p4485
I1
sVRichard Pefferle
p4486
I1
sVAlexander Trauner
p4487
I1
sVA Damsel in Distress (film)
p4488
I1
sVJohn B. Goodman (art director)
p4489
I1
sVFranz Bachelin
p4490
I1
sVSaving Private Ryan
p4491
I1
sV1928 in film
p4492
I1
sVAl Roelofs
p4493
I1
sV2003 in film
p4494
I1
sVHans Peters (art director)
p4495
I1
sVMary Poppins (film)
p4496
I1
sVScrooge (1970 film)
p4497
I1
sVToo Young to Kiss
p4498
I1
sV1981 in film
p4499
I1
sVLorenzo Mongiardino
p4500
I1
sV16th Academy Awards
p4501
I1
sV2014 in film
p4502
I1
sVThe Towering Inferno
p4503
I1
sVWilliam Flannery
p4504
I1
sVMr. Turner
p4505
I1
sVWalter Holscher
p4506
I1
sVDaniel Cathcart
p4507
I1
sV1994 in film
p4508
I1
sVWilliam O. Wallace
p4509
I1
sVSome Like It Hot
p4510
I1
sVExperiment Perilous
p4511
I1
sVThe Incredible Sarah
p4512
I1
sVThe Fisher King (film)
p4513
I1
sVLeslie Pope
p4514
I1
sV1937 in film
p4515
I1
sVLa La Land (film)
p4516
I1
sV43rd Academy Awards
p4517
I1
sVAround the World in 80 Days (1956 film)
p4518
I1
sVRenzo Mongiardino
p4519
I1
sVDebra Schutt
p4520
I1
sVThe Godfather Part II
p4521
I1
sVJoe Alves
p4522
I1
sVNorman Garwood
p4523
I1
sVUrie McCleary
p4524
I1
sV1974 in film
p4525
I1
sVEdwin Casey Roberts
p4526
I1
sVLove Letters (1945 film)
p4527
I1
sVThe Solid Gold Cadillac
p4528
I1
sVLegends of the Fall
p4529
I1
sVGandhi (film)
p4530
I1
sVCabaret (1972 film)
p4531
I1
sVTwilight of Honor
p4532
I1
sVFinding Neverland (film)
p4533
I1
sV1991 in film
p4534
I1
sVThe Great Ziegfeld
p4535
I1
sVE. Preston Ames
p4536
I1
sVWilly Holt
p4537
I1
sVOliver Smith (designer)
p4538
I1
sVTim Harvey (art director)
p4539
I1
sVNancy Haigh
p4540
I1
sVThe Remains of the Day (film)
p4541
I1
sV1929 in film
p4542
I1
sVPaul Markwitz
p4543
I1
sV1957 in film
p4544
I1
sVGrant Major
p4545
I1
sVQuo Vadis (1951 film)
p4546
I1
sVOrlando (film)
p4547
I1
sVFrank Tuttle (set decorator)
p4548
I1
sVW. Stewart Campbell
p4549
I1
sVThe Longest Day (film)
p4550
I1
sVMerideth Boswell
p4551
I1
sVJoe Jennings
p4552
I1
sVCary Odell
p4553
I1
sVThe Godfather Part III
p4554
I1
sVGone with the Wind (film)
p4555
I1
sVStephenie McMillan
p4556
I1
sV88th Academy Awards
p4557
I1
sVReturn of the Jedi
p4558
I1
sVLouis Diage
p4559
I1
sVTim Hutchinson (production designer)
p4560
I1
sVEl Cid (film)
p4561
I1
sVPhilip Rosenberg
p4562
I1
sVHilyard M. Brown
p4563
I1
sV36th Academy Awards
p4564
I1
sVAntonio Mateos
p4565
I1
sV86th Academy Awards
p4566
I1
sVMildred Griffiths
p4567
I1
sVWilliam R. Kiernan
p4568
I1
sVThe Molly Maguires
p4569
I1
sVGeoffrey Drake
p4570
I1
sV1968 in film
p4571
I1
sVLuciana Arrighi
p4572
I1
sV26th Academy Awards
p4573
I1
sVJohn Victor Mackay
p4574
I1
sVDorree Cooper
p4575
I1
sVBruce Weintraub
p4576
I1
sV1986 in film
p4577
I1
sVFantastic Voyage
p4578
I1
sV67th Academy Awards
p4579
I1
sVToys (film)
p4580
I1
sVLes Girls
p4581
I1
sVThe Talented Mr. Ripley (film)
p4582
I1
sVThe Prisoner of Zenda (1937 film)
p4583
I1
sVThe Adventures of Robin Hood
p4584
I1
sVNathan H. Juran
p4585
I1
sVA. Roland Fields
p4586
I1
sV20th Academy Awards
p4587
I1
sVMalcolm Bert
p4588
I1
sVThe Robe (film)
p4589
I1
sVJohn DeCuir
p4590
I1
sVMaurice Carter (film designer)
p4591
I1
sVJuliet of the Spirits
p4592
I1
sVAdam Stockhausen
p4593
I1
sV21st Academy Awards
p4594
I1
sVJack Mills (art director)
p4595
I1
sVA Streetcar Named Desire (1951 film)
p4596
I1
sVAngelo Graham
p4597
I1
sVJohn Sturtevant
p4598
I1
sVKing of Jazz
p4599
I1
sVSeven Samurai
p4600
I1
sVGeorge Washington Slept Here
p4601
I1
sVStagecoach (1939 film)
p4602
I1
sVSong of the Open Road
p4603
I1
sVChangeling (2008 film)
p4604
I1
sVLili
p4605
I1
sVThe Keys of the Kingdom (film)
p4606
I1
sV13th Academy Awards
p4607
I1
sV2016 in film
p4608
I1
sV78th Academy Awards
p4609
I1
sVGeorge C. Webb
p4610
I1
sV1973 in film
p4611
I1
sV54th Academy Awards
p4612
I1
sVPassengers (2016 film)
p4613
I1
sVFrida
p4614
I1
sV2012 in film
p4615
I1
sVWilliam Creber
p4616
I1
sVHenry Bumstead
p4617
I1
sV1978 in film
p4618
I1
sVThe Age of Innocence (1993 film)
p4619
I1
sVSamson and Delilah (1949 film)
p4620
I1
sVWest Side Story (film)
p4621
I1
sVSaraband for Dead Lovers
p4622
I1
sVBen-Hur (1959 film)
p4623
I1
sVOn the Riviera
p4624
I1
sVSamuel M. Comer
p4625
I1
sVJourney to the Center of the Earth (1959 film)
p4626
I1
sV73rd Academy Awards
p4627
I1
sVThe Abyss
p4628
I1
sVMr. Smith Goes to Washington
p4629
I1
sVMerrily We Live
p4630
I1
sVEddie Imazu
p4631
I1
sVVanity Fair (magazine)
p4632
I1
sVAnne Seibel
p4633
I1
sVCaesar and Cleopatra (1945 film)
p4634
I1
sV1975 in film
p4635
I1
sVJacques Mersereau
p4636
I1
sVGuys and Dolls (film)
p4637
I1
sVDarkest Hour (film)
p4638
I1
sVSan Antonio (film)
p4639
I1
sVThe Imaginarium of Doctor Parnassus
p4640
I1
sV50th Academy Awards
p4641
I1
sVQuills
p4642
I1
sVAnnie (1982 film)
p4643
I1
sVAmadeus (film)
p4644
I1
sVChicago (2002 film)
p4645
I1
sV1955 in film
p4646
I1
sVThe Story of Three Loves
p4647
I1
sVAngelo P. Graham
p4648
I1
sVJoan of Arc (1948 film)
p4649
I1
sVart direction
p4650
I1
sV6th Academy Awards
p4651
I1
sVBeth A. Rubino
p4652
I1
sVJill Quertier
p4653
I1
sVOtto Siegel
p4654
I1
sVGeorge DeTitta Jr.
p4655
I1
sVVeniero Colasanti
p4656
I1
sV1932 in film
p4657
I1
sVDarrell Silvera
p4658
I1
sVCavalcade (1933 film)
p4659
I1
sVBullets over Broadway
p4660
I1
sVDale Hennesy
p4661
I1
sVPamela Cornell
p4662
I1
sVThe Desert Song (1943 film)
p4663
I1
sVThe Wizard of Oz (1939 film)
p4664
I1
sVCimarron (1960 film)
p4665
I1
sVDaddy Long Legs (1955 film)
p4666
I1
sVBertram Granger
p4667
I1
sVBill Malley
p4668
I1
sVErnest Archer
p4669
I1
sVLisa Dean
p4670
I1
sVRoger K. Furse
p4671
I1
sVDaniel Robert
p4672
I1
sVThe Imitation Game
p4673
I1
sVRalph Brinton
p4674
I1
sVJohn DuCasse Schulze
p4675
I1
sVJack Collis
p4676
I1
sVInception
p4677
I1
sVBeau Geste (1939 film)
p4678
I1
sVThe Shoes of the Fisherman
p4679
I1
sV2005 in film
p4680
I1
sV1993 in film
p4681
I1
sVThe Natural (film)
p4682
I1
sV39th Academy Awards
p4683
I1
sV1979 in film
p4684
I1
sVBatman (1989 film)
p4685
I1
sVJoseph C. Wright
p4686
I1
sVGladiator (2000 film)
p4687
I1
sVPaul Hotte
p4688
I1
sVMario Chiari
p4689
I1
sV59th Academy Awards
p4690
I1
sVSayonara
p4691
I1
sVCome to the Stable
p4692
I1
sVVernon Dixon
p4693
I1
sVAddison Hehr
p4694
I1
sVChinatown (1974 film)
p4695
I1
sVLuigi Gervasi
p4696
I1
sVPolly Platt
p4697
I1
sVDan Lomino
p4698
I1
sVAn American in Paris (film)
p4699
I1
sVLittle Women (1949 film)
p4700
I1
sVRebecca Alleway
p4701
I1
sVTaizoh Kawashima
p4702
I1
sVGigi (1958 film)
p4703
I1
sVThe Madness of King George
p4704
I1
sVJohn Myhre
p4705
I1
sV77th Academy Awards
p4706
I1
sVLillian Russell (film)
p4707
I1
sV1961 in film
p4708
I1
sVEdward Carfagno
p4709
I1
sVThe Color Purple (film)
p4710
I1
sVTitanic (1953 film)
p4711
I1
sVMikhail Bogdanov (artist)
p4712
I1
sVTed Marshall
p4713
I1
sVColin Gibson (production designer)
p4714
I1
sVPeter Young (set decorator)
p4715
I1
sV81st Academy Awards
p4716
I1
sVThe Red Danube
p4717
I1
sV1963 in film
p4718
I1
sVGene Serdena
p4719
I1
sVGravity (2013 film)
p4720
I1
sVRichard Lawrence (art director)
p4721
I1
sV83rd Academy Awards
p4722
I1
sVCedric Gibbons
p4723
I1
sVList of posthumous Academy Award winners and nominees
p4724
I1
sVRobert Usher
p4725
I1
sVGennady Myasnikov
p4726
I1
sVAllan Starski
p4727
I1
sVJack Poplin
p4728
I1
sVSomebody Up There Likes Me (1956 film)
p4729
I1
sVEwa Braun
p4730
I1
sVFernando Carrere
p4731
I1
sVThe Agony and the Ecstasy (film)
p4732
I1
sVThe Slender Thread
p4733
I1
sVFred Hole
p4734
I1
sVHope and Glory (film)
p4735
I1
sVThe Phantom of the Opera (2004 film)
p4736
I1
sVSusan Bode
p4737
I1
sVBridge of Spies (film)
p4738
I1
sVAcademy Awards
p4739
I1
sVWhen Ladies Meet (1941 film)
p4740
I1
sVInside Daisy Clover
p4741
I1
sVJames W. Sullivan
p4742
I1
sVFive Graves to Cairo
p4743
I1
sVThe Rains Came
p4744
I1
sVMy Fair Lady (film)
p4745
I1
sVHarry Oliver
p4746
I1
sV1972 in film
p4747
I1
sVThe Yearling (film)
p4748
I1
sV1990 in film
p4749
I1
sVNorman Reynolds
p4750
I1
sVCarmelo Patrono
p4751
I1
sVPaul S. Fox
p4752
I1
sVEmile Kuri
p4753
I1
sV1965 in film
p4754
I1
sVCover Girl (film)
p4755
I1
sV1941 in film
p4756
I1
sVBoris Juraga
p4757
I1
sVArthur Krams
p4758
I1
sVWitness (1985 film)
p4759
I1
sVJack McConaghy
p4760
I1
sV1980 in film
p4761
I1
sV19th Academy Awards
p4762
I1
sVBarton Fink
p4763
I1
sVAmerica America
p4764
I1
sV52nd Academy Awards
p4765
I1
sVTed Haworth
p4766
I1
sVRosie Goodwin
p4767
I1
sVLeslie E. Rollins
p4768
I1
sVMy Cousin Rachel (1952 film)
p4769
I1
sVA Little Princess (1995 film)
p4770
I1
sV2004 in film
p4771
I1
sVSusanne Lingheim
p4772
I1
sVGordon Sim
p4773
I1
sV33rd Academy Awards
p4774
I1
sVThe Duchess (film)
p4775
I1
sVShip of Fools (film)
p4776
I1
sVThe Poseidon Adventure (1972 film)
p4777
I1
sVThomas E. Sanders
p4778
I1
sVJohn Jarvis (set decorator)
p4779
I1
sVA Star Is Born (1954 film)
p4780
I1
sVForrest Gump
p4781
I1
sVA Certain Smile (film)
p4782
I1
sVBob Cartwright
p4783
I1
sVGeorge Sawley
p4784
I1
sVJohn Stoll
p4785
I1
sV74th Academy Awards
p4786
I1
sVJim Poynter
p4787
I1
sVGeorge Davis (art director)
p4788
I1
sVVincent Korda
p4789
I1
sV30th Academy Awards
p4790
I1
sVPaul Groesse
p4791
I1
sV2001 in film
p4792
I1
sVLes Dilley
p4793
I1
sVJeannine Claudia Oppewall
p4794
I1
sVThe Grand Budapest Hotel
p4795
I1
sVThe Westerner (film)
p4796
I1
sVMorocco (film)
p4797
I1
sVThe Adventures of Baron Munchausen
p4798
I1
sVThe Heiress
p4799
I1
sVWilliam H. Tuntke
p4800
I1
sV87th Academy Awards
p4801
I1
sV57th Academy Awards
p4802
I1
sVEmpire of the Sun (film)
p4803
I1
sVRaiders of the Lost Ark
p4804
I1
sVAnna Asp
p4805
I1
sVThe Pride of the Yankees
p4806
I1
sVDavid and Sandy Reynolds-Wasco
p4807
I1
sVThe Cider House Rules (film)
p4808
I1
sVBernhard Henrich
p4809
I1
sVWilliam A. Elliott
p4810
I1
sVAtonement (film)
p4811
I1
sVAvatar (2009 film)
p4812
I1
sVAnn Mollo
p4813
I1
sVFirst Love (1939 film)
p4814
I1
sV71st Academy Awards
p4815
I1
sVThe Goldwyn Follies
p4816
I1
sVArmin Ganz
p4817
I1
sVHans Christian Andersen (film)
p4818
I1
sVHania Robledo
p4819
I1
sVCheryl Carasik
p4820
I1
sVStuart A. Reiss
p4821
I1
sVBugsy
p4822
I1
sVPhantom of the Opera (1943 film)
p4823
I1
sVConquest (1937 film)
p4824
I1
sVMadame Bovary (1949 film)
p4825
I1
sVVertigo (film)
p4826
I1
sVThe Big Fisherman
p4827
I1
sVNo Time for Love (1943 film)
p4828
I1
sVRomeo and Juliet (1936 film)
p4829
I1
sVBoris Leven
p4830
I1
sVNorthwest Mounted Police (film)
p4831
I1
sVTimmy Yip
p4832
I1
sVAlbert Brenner
p4833
I1
sVSally (1929 film)
p4834
I1
sVRagtime (film)
p4835
I1
sV82nd Academy Awards
p4836
I1
sVDriving Miss Daisy
p4837
I1
sVDunkirk (2017 film)
p4838
I1
sVChris A. Butler
p4839
I1
sVGretchen Rau
p4840
I1
sVHamlet (1990 film)
p4841
I1
sVThe Taming of the Shrew (1967 film)
p4842
I1
sVRuby R. Levitt
p4843
I1
sVArthur Max
p4844
I1
sV51st Academy Awards
p4845
I1
sVFredric Hope
p4846
I1
sV63rd Academy Awards
p4847
I1
sVRick Simpson
p4848
I1
sVThe Oscar (film)
p4849
I1
sVLust for Life (film)
p4850
I1
sVLeslie Tomkins
p4851
I1
sVHamlet (1996 film)
p4852
I1
sVVictor A. Gangelin
p4853
I1
sVRobert Gould (art director)
p4854
I1
sVScott Slimon
p4855
I1
sVAlessandra Querzola
p4856
I1
sVThe Gay Divorcee
p4857
I1
sVAlice Baker (set decorator)
p4858
I1
sVCarl Jules Weyl
p4859
I1
sVThe Young Victoria
p4860
I1
sVKen Muggleston
p4861
I1
sVThe Artist (film)
p4862
I1
sVA Very Long Engagement
p4863
I1
sVHarley Miller
p4864
I1
sVThe Sand Pebbles (film)
p4865
I1
sVOsvaldo Desideri
p4866
I1
sVThe Way We Were
p4867
I1
sVTop Hat
p4868
I1
sVGeorge J. Hopkins
p4869
I1
sVReds (film)
p4870
I1
sV1938 in film
p4871
I1
sVJack Fisk
p4872
I1
sVJohn B. Mansbridge
p4873
I1
sVCindy Carr
p4874
I1
sVJack Stubbs
p4875
I1
sV69th Academy Awards
p4876
I1
sVFrank Hotaling
p4877
I1
sV65th Academy Awards
p4878
I1
sVLe Plaisir
p4879
I1
sVJack D. Moore
p4880
I1
sVThe Song of Bernadette (film)
p4881
I1
sVLove with the Proper Stranger
p4882
I1
sVThe Exorcist (film)
p4883
I1
sVTo Kill a Mockingbird (film)
p4884
I1
sVGeorge Gaines (set decorator)
p4885
I1
sVGeorge Montgomery (set decorator)
p4886
I1
sVAlan Tomkins
p4887
I1
sVEzio Frigerio
p4888
I1
sVFred J. Rode
p4889
I1
sVThe Spy Who Came in from the Cold (film)
p4890
I1
sVTony Burrough
p4891
I1
sV2009 in film
p4892
I1
sVFourteen Hours
p4893
I1
sVRichard Irvine
p4894
I1
sV1960 in film
p4895
I1
sVGeorge Milo
p4896
I1
sVDavid S. Hall (art director)
p4897
I1
sVMax Parker
p4898
I1
sVThe Birdcage
p4899
I1
sVWhat Dreams May Come (film)
p4900
I1
sVArrigo Breschi
p4901
I1
sVMalcolm Brown (art director)
p4902
I1
sVPillow Talk (film)
p4903
I1
sVHerman A. Blumenthal
p4904
I1
sVAlfred Junge
p4905
I1
sVLeslie Dilley
p4906
I1
sVPeter Lamont
p4907
I1
sVJohn Victor MacKay
p4908
I1
sVClose Encounters of the Third Kind
p4909
I1
sVAll About Eve
p4910
I1
sVPeter Howitt (set decorator)
p4911
I1
sVAlice in Wonderland (2010 film)
p4912
I1
sVThe Elephant Man (film)
p4913
I1
sVThe Hindenburg (1975 film)
p4914
I1
sVWalter Simonds
p4915
I1
sVDangerous Liaisons
p4916
I1
sVThe Sound of Music (film)
p4917
I1
sVAnton Furst
p4918
I1
sVRick Heinrichs
p4919
I1
sVWilliam Ferrari
p4920
I1
sVTopsy-Turvy
p4921
I1
sVThe Turning Point (1977 film)
p4922
I1
sVUnforgiven
p4923
I1
sV55th Academy Awards
p4924
I1
sVCarol Joffe
p4925
I1
sVLife of Pi (film)
p4926
I1
sVKenneth A. Reid
p4927
I1
sVLady in the Dark (film)
p4928
I1
sVZorba the Greek (film)
p4929
I1
sVTess (1979 film)
p4930
I1
sVJacques Rouxel (production designer)
p4931
I1
sVRandom Harvest (film)
p4932
I1
sVThe Tales of Hoffmann (film)
p4933
I1
sVBruno Cesari
p4934
I1
sV1950 in film
p4935
I1
sVAirport (1970 film)
p4936
I1
sVYoung Bess
p4937
I1
sVDaniel B. Cathcart
p4938
I1
sVGattaca
p4939
I1
sVThe Thief of Bagdad (1940 film)
p4940
I1
sVLos Angeles Times
p4941
I1
sV90th Academy Awards
p4942
I1
sVThe Night of the Iguana (film)
p4943
I1
sVJohn Meehan (art director)
p4944
I1
sVWard Ihnen
p4945
I1
sV1988 in film
p4946
I1
sVTeenage Rebel
p4947
I1
sVA Passage to India (film)
p4948
I1
sVWilson (1944 film)
p4949
I1
sVSeabiscuit (film)
p4950
I1
sVJan Roelfs
p4951
I1
sVPatrick McLoughlin (set decorator)
p4952
I1
sVRobert Clatworthy (art director)
p4953
I1
sVShinobu Muraki
p4954
I1
sV1992 in film
p4955
I1
sVJeannine Oppewall
p4956
I1
sVAlien (film)
p4957
I1
sVDoctor Dolittle (film)
p4958
I1
sVL.A. Confidential (film)
p4959
I1
sV1976 in film
p4960
I1
sVDays of Wine and Roses (film)
p4961
I1
sVBlood on the Sun
p4962
I1
sVJudgment at Nuremberg
p4963
I1
sVSo Matsuyama
p4964
I1
sVReg Allen (set decorator)
p4965
I1
sVHold Back the Dawn
p4966
I1
sVRan (film)
p4967
I1
sV1927 in film
p4968
I1
sVPhilip Jefferies
p4969
I1
sVOliver Messel
p4970
I1
sVHugh B. Hunt
p4971
I1
sVPeter Ellenshaw
p4972
I1
sVTessa Davies
p4973
I1
sVCelia Bobak
p4974
I1
sVWilliam Horning
p4975
I1
sVAnthony Adverse
p4976
I1
sVThe Adventures of Mark Twain (1944 film)
p4977
I1
sVJohn Box
p4978
I1
sVRochus Gliese
p4979
I1
sV1958 in film
p4980
I1
sVApocalypse Now
p4981
I1
sVWilliam Cameron Menzies
p4982
I1
sVWilliam Sandell
p4983
I1
sV10th Academy Awards
p4984
I1
sVThe Flame of New Orleans
p4985
I1
sVHowards End (film)
p4986
I1
sVSeven Days in May
p4987
I1
sVStan Jolley
p4988
I1
sVJean Rabasse
p4989
I1
sV12 Years a Slave (film)
p4990
I1
sV14th Academy Awards
p4991
I1
sVGabriel Bechir
p4992
I1
sVA Patch of Blue
p4993
I1
sVThe Red Shoes (1948 film)
p4994
I1
sVPatrizia von Brandenstein
p4995
I1
sVThe Ten Commandments (1956 film)
p4996
I1
sVEdwin B. Wills
p4997
I1
sVDavid L. Snyder
p4998
I1
sVHow Green Was My Valley (film)
p4999
I1
sVNational Velvet (film)
p5000
I1
sVJungle Book (1942 film)
p5001
I1
sVJay Hart
p5002
I1
sV1934 in film
p5003
I1
sVThe Private Lives of Elizabeth and Essex
p5004
I1
sVKitty (1945 film)
p5005
I1
sVJim Bissell
p5006
I1
sVLuigi Scaccianoce
p5007
I1
sV1946 in film
p5008
I1
sVGeorge James Hopkins
p5009
I1
sV2010 in film
p5010
I1
sVStephen B. Grimes
p5011
I1
sVRobert R. Benton
p5012
I1
sVJohn W. Brown (set decorator)
p5013
I1
sVBeauty and the Beast (2017 film)
p5014
I1
sV1989 in film
p5015
I1
sVAmerican Gangster (film)
p5016
I1
sVThe Cotton Club (film)
p5017
I1
sVBabe (film)
p5018
I1
sVWhen Ladies Meet (1933 film)
p5019
I1
sVAdventures of Don Juan
p5020
I1
sV1969 in film
p5021
I1
sVPatrice Vermette
p5022
I1
sVAlbert Nozaki
p5023
I1
sVJim Erickson
p5024
I1
sVBlossoms in the Dust
p5025
I1
sV41st Academy Awards
p5026
I1
sVJo Mielziner
p5027
I1
sVRuby Levitt
p5028
I1
sVFlight for Freedom
p5029
I1
sV1987 in film
p5030
I1
sV89th Academy Awards
p5031
I1
sVPiero Gherardi
p5032
I1
sVThe Boys from Syracuse (film)
p5033
I1
sVRobert Odell
p5034
I1
sVPeter James (set decorator)
p5035
I1
sVAl Fields
p5036
I1
sVArabian Nights (1942 film)
p5037
I1
sVSundown (1941 film)
p5038
I1
sV1977 in film
p5039
I1
sVShampoo (film)
p5040
I1
sVGirl with a Pearl Earring (film)
p5041
I1
sVMartin Luther (1953 film)
p5042
I1
sVRolf Zehetbauer
p5043
I1
sVAll That Jazz (film)
p5044
I1
sVTom Sawyer (1973 film)
p5045
I1
sVBruno Rubeo
p5046
I1
sVGeorge Dudley (art director)
p5047
I1
sVOut of Africa (film)
p5048
I1
sVThe Absent-Minded Professor
p5049
I1
sVMichael Standish
p5050
I1
sVAnna Pinnock
p5051
I1
sVThe Spoilers (1942 film)
p5052
I1
sVHouse on Telegraph Hill
p5053
I1
sVRichard III (1995 film)
p5054
I1
sVHeaven Can Wait (1978 film)
p5055
I1
sV1942 in film
p5056
I1
sVCharles Novi
p5057
I1
sVElizabeth (film)
p5058
I1
sVThe Princess and the Pirate
p5059
I1
sVThe Fortune Cookie
p5060
I1
sVJohn McCarthy Jr.
p5061
I1
sVPatton (film)
p5062
I1
sV45th Academy Awards
p5063
I1
sVThe Bad and the Beautiful
p5064
I1
sVThis Above All (film)
p5065
I1
sVIf I Were King
p5066
I1
sVPaul Sheriff
p5067
I1
sVJoseph Kish
p5068
I1
sVCamelot (film)
p5069
I1
sV1985 in film
p5070
I1
sVIda Random
p5071
I1
sV1951 in film
p5072
I1
sVMemoirs of a Geisha (film)
p5073
I1
sVBulldog Drummond (1929 film)
p5074
I1
ss.