(dp1
I0
c__builtin__
set
p2
((lp3
S'Ayn Rand'
p4
atRp5
sI1
g2
((lp6
VNick Gaetano
p7
aVWe the Living
p8
aVNabokov house
p9
aVcollectivism
p10
aVCyrillic
p11
aVEdmond Rostand
p12
aVclassical liberalism
p13
aVJohn Hospers
p14
aVVictor Hugo
p15
aVAcademy Awards
p16
aVIra Levin
p17
aVPola Negri
p18
aVconservative
p19
aVUniversity of Pittsburgh Press
p20
aVThe God of the Machine
p21
aVCato Unbound
p22
aVcommunism
p23
aVFriedrich Schiller
p24
aVTekhnikum
p25
aVMark Cuban
p26
aVPlato
p27
aVHoward Roark
p28
aVKrause Publications
p29
aVdraft dodgers
p30
aVfree markets
p31
aVThe Fountainhead
p32
aVFebruary Revolution
p33
aVNicholas II
p34
aVGQ
p35
aVAyn Rand and the World She Made
p36
aVLibertarianism
p37
aVclassical liberals
p38
aVErika Holzer
p39
aVromantic realism
p40
aVImmanuel Kant
p41
aVBolshevik
p42
aVrepublicanism
p43
aVBroadway theatre
p44
aVNew American Library
p45
aVindividual rights
p46
aVKay Nolte Smith
p47
aVIntroduction to Objectivist Epistemology
p48
aVdiploma
p49
aVJiji Press
p50
aVdictatorship
p51
aVNathaniel Branden
p52
aVstatism
p53
aVconstitutional monarchy
p54
aVJohn Locke
p55
aVNathaniel Branden Institute
p56
aVpolitical philosophy
p57
aVSteve Ditko
p58
aVChronicle of Higher Education
p59
aVFriedrich Hayek
p60
aVAristotle
p61
aVIsabel Paterson
p62
aVRomance novel
p63
aVAlex Chadwick
p64
aVDoctor of Humane Letters
p65
aVJapan Times
p66
aVLeonard Peikoff
p67
aVRed Pawn
p68
aVThe Nation
p69
aVVladimir Nabokov
p70
aVGarry Wills
p71
aVBenzedrine
p72
aVtheocracy
p73
aVRational egoism
p74
aVnovelist
p75
aVAllan Gotthelf
p76
aVpolitical left
p77
aVheart failure
p78
aVThe New York Times Book Review
p79
aVObjectivist movement
p80
aVsubjectivism
p81
aVHenry Hazlitt
p82
aVTea Party protests
p83
aVHarvard
p84
aVJournals of Ayn Rand
p85
aVJohn David Lewis
p86
aVsystematic philosophy
p87
aVThe Best Years of Our Lives
p88
aVModern Library
p89
aVVietnam War
p90
aVBible
p91
aVThe Journal of Ayn Rand Studies
p92
aVYom Kippur War
p93
aVOn Ayn Rand
p94
aVFamous Fantastic Mysteries
p95
aVRutland Herald
p96
aVUnited States Congress
p97
aVFor the New Intellectual
p98
aVEdward Rothstein
p99
aVmagnum opus
p100
aVSoviet Russia
p101
aVreason
p102
aVAtlas Shrugged
p103
aVcult
p104
aVRoutledge Encyclopedia of Philosophy
p105
aVSidney Hook
p106
aVknowledge
p107
aVConservatism in the United States
p108
aVCato Institute
p109
aVDavid Hume
p110
aVVladimir Lenin
p111
aVAmerican Philosophical Association
p112
aVStanford Encyclopedia of Philosophy
p113
aVObjectivist periodicals
p114
aVThe Virtue of Selfishness
p115
aVBroadway theater
p116
aVphilosophical realism
p117
aVGore Vidal
p118
aVEpcot
p119
aVbestseller
p120
aVFyodor Dostoevsky
p121
aVCrimean Peninsula
p122
aVMichael Huemer
p123
aVCambridge University Press
p124
aVThe Objectivist
p125
aVPhilosophy
p126
aVPrivate property
p127
aVwelfare state
p128
aVYale
p129
aVYou Came Along
p130
aVhomosexuality
p131
aVpundits
p132
aVMimi Reisel Gladstein
p133
aVReagan administration
p134
aVThe Guardian
p135
aVThe Chronicle of Higher Education
p136
aVepistemology
p137
aVNeil Peart
p138
aVThe Atlas Society
p139
aVManhattan
p140
aVMassachusetts Institute of Technology
p141
aVtotalitarian
p142
aVKensico Cemetery
p143
aVHonorary degree
p144
aVThe Personalist
p145
aVSong of Russia
p146
aVutopian
p147
aVMotion Picture Alliance for the Preservation of American Ideals
p148
aVcomic book
p149
aVColumbia University
p150
aVhistory of philosophy
p151
aVTerry Goodkind
p152
aVIndigenous peoples of the Americas
p153
aVTsar
p154
aVanarchism
p155
aVdystopia
p156
aVJohn Galt
p157
aVPrinceton University
p158
aVayin
p159
aVComcast Spectacor
p160
aVRussian Civil War
p161
aVdystopian
p162
aVRose Wilder Lane
p163
aVNick Gillespie
p164
aVRussian Empire
p165
aVBarry Goldwater
p166
aVscience fiction
p167
aVFriedrich Nietzsche
p168
aVdemocratic socialism
p169
aVChris Matthew Sciabarra
p170
aVPetrograd State University
p171
aVsocial pedagogy
p172
aVJournal of Ayn Rand Studies
p173
aVParamount Pictures
p174
aVA priori and a posteriori
p175
aVUniversity of Pittsburgh
p176
aVClemson University
p177
aVStrike action
p178
aVAyn Rand Institute
p179
aVaesthetics
p180
aVLudwig von Mises
p181
aVChicago
p182
aVThomas Aquinas
p183
aVinitiation of force
p184
aVromanticism
p185
aVEd Snider
p186
aVSaint Petersburg
p187
aVAmerican Writers Association
p188
aVlibertarian
p189
aVFord Hall Forum
p190
aVMike Wallace
p191
aVmetaphysics
p192
aVFederal Reserve Chairman
p193
aVIsrael
p194
aVGeorge Reisman
p195
aVHarry Binswanger
p196
aVLetters of Ayn Rand
p197
aVLeft Behind
p198
aVUniversity of North Carolina at Chapel Hill
p199
aVethical egoism
p200
aVNational Review
p201
aVWhole Foods
p202
aVSecond Red Scare
p203
aVfree will
p204
aVDallas Mavericks
p205
aVRKO
p206
aVmilitary draft
p207
aVLibrary of Congress
p208
aVAlexander Kerensky
p209
aVOctober Revolution
p210
aVAustrian School
p211
aVThe Passion of Ayn Rand
p212
aVRobert Nozick
p213
aVUniversity of Texas at Austin
p214
aVAlan Greenspan
p215
aVfascism
p216
aVBarbara Branden
p217
aVPrometheus Award
p218
aVDuke University
p219
aVThe Romantic Manifesto
p220
aVAmerican libertarianism
p221
aVabsolute monarchy
p222
aVethics
p223
aVamphetamine
p224
aVAcademy Award for Best Documentary Feature
p225
aVbourgeois
p226
aVSoviet Union
p227
aVUniversal Studios
p228
aVDavid Kelley
p229
aVlung cancer
p230
aVWhite Army
p231
aVFinnish language
p232
aVFrederic Bastiat
p233
aVatheist
p234
aVThe New York Times
p235
aVnewsreels
p236
aVWhittaker Chambers
p237
aVcapitalism
p238
aVWendell Willkie
p239
aVAquinas
p240
aVReligion in the Soviet Union
p241
aVHebrew
p242
aVNazism
p243
aVaxiom
p244
aVEuropean colonization of the Americas
p245
atRp246
sI2
g2
((lp247
VMartin Heidegger
p248
aVvirtue ethics
p249
aVESPN
p250
aVcarpel
p251
aVAcademy Award for Best Sound Editing
p252
aVPoetry
p253
aVcrocodile
p254
aVEarly Church
p255
aVArmand Marie Leroi
p256
aVAcademy Award for Best Engineering Effects
p257
aVnews ticker
p258
aVOrganon
p259
aVGovernors Awards
p260
aVAcademy Award for Best Animated Feature
p261
aVpathos
p262
aVCitizen Kane
p263
aVList of film awards
p264
aVjet ski
p265
aVRoman Empire
p266
aVgeology
p267
aVAlaska
p268
aVAcademy Juvenile Award
p269
aVartery
p270
aVsyntax
p271
aVAcademy Award for Best Film Editing
p272
aVDeductive reasoning
p273
aVCassander
p274
aVGet Out
p275
aVSparisoma cretense
p276
aVThe Shape of Water
p277
aVGuillermo del Toro
p278
aVmammal
p279
aVThe Hurt Locker
p280
aVoptics
p281
aVSacheen Littlefeather
p282
aVTheWrap
p283
aVsoul
p284
aVLife expectancy
p285
aVPricewaterhouseCoopers
p286
aVcephalopod
p287
aVHephaestion
p288
aVAlessandro Turchi
p289
aVEuboea
p290
aVatomism
p291
aVLaws of Association
p292
aVsocial contract
p293
aVSophocles
p294
aVBoethius
p295
aVConimbricenses
p296
aVPrior Analytics
p297
aVbird
p298
aVGeneration of Animals
p299
aVPlants
p300
aVRhetoric
p301
aVMineral
p302
aVNational Football League
p303
aVProgramma Nazionale di Ricerche in Antartide
p304
aVChalkidiki
p305
aVphysiology
p306
aVAsia Minor
p307
aVJames of Venice
p308
aVCharonia variegata
p309
aVAcademy Award for Best Title Writing
p310
aVJanet Gaynor
p311
aVAlcmaeon of Croton
p312
aVAmerican Broadcasting Company
p313
aVAristotle for Everybody
p314
aVWestern philosophy
p315
aVGerard of Cremona
p316
aVvolcanic eruption
p317
aVIndependent Spirit Awards
p318
aVAllison Janney
p319
aVDithyramb
p320
aVduck
p321
aVRolling Stone
p322
aVextinction
p323
aVJonathan Barnes
p324
aVAristotle Mountains
p325
aVgenomics
p326
aVXenocrates
p327
aVHarold Russell
p328
aVMargaret Herrick
p329
aVSea bass
p330
aVCarolyn Hennesy
p331
aVkinematics
p332
aVPacific Design Center
p333
aVcrab
p334
aVaperture
p335
aVAcademy of Motion Picture Arts and Sciences
p336
aVWinter Olympic Games
p337
aVsensorium
p338
aVepic poetry
p339
aVbronze sculpture
p340
aVvalidity
p341
aVAncient Greece
p342
aVChalcidian League
p343
aVPaolo Veronese
p344
aVparticular
p345
aVEastern Time Zone
p346
aVcommon descent
p347
aVclassical mechanics
p348
aVlogos
p349
aVpopularity contest
p350
aVsweeps
p351
aVThe Divine Comedy
p352
aVCinema of the United States
p353
aVAcademy Award for Best Costume Design
p354
aVexecutor
p355
aVgastropod
p356
aVAcademy Award for Best Animated Short Film
p357
aVmnemonic
p358
aVAcademy Award for Best Live Action Short Film
p359
aVDante Alighieri
p360
aVDudley Nichols
p361
aVviviparity
p362
aVMovement of Animals
p363
aVruminant
p364
aVanimal
p365
aVpolis
p366
aVScholasticism
p367
aVAcademy Award for Best Dance Direction
p368
aVabstraction
p369
aVDolby Theatre
p370
aVCicero
p371
aVHistory of Animals
p372
aVgestation
p373
aVJohn Buridan
p374
aVWilshire Boulevard
p375
aVJusepe de Ribera
p376
aVCharles Lyell
p377
aVAcademy Award for Best Director
p378
aVGreece
p379
aVnous
p380
aVAmyntas III of Macedon
p381
aVAcademy Award for Best Foreign Language Film
p382
aVChalcidice
p383
aVessence
p384
aVElton John AIDS Foundation Academy Award Party
p385
aVEmpedocles
p386
aVBryan Magee
p387
aVPsychology
p388
aVlinguistics
p389
aVChris Mulkey
p390
aVShrine Auditorium
p391
aVheron
p392
aVgestation period
p393
aVAesop
p394
aVChristian theology
p395
aVGalileo Galilei
p396
aVAcademy Award for Best Actor
p397
aVSolid
p398
aVPhilip II of Macedon
p399
aVComposite Antarctic Gazetteer
p400
aVVirtue ethics
p401
aVInternal Revenue Service
p402
aVSquid
p403
aVAge of Enlightenment
p404
aVCivil rights activist
p405
aVTrial of Socrates
p406
aVfour causes
p407
aVreductio ad absurdum
p408
aVLos Angeles Times
p409
aVfish
p410
aVplant
p411
aVcinema of the United States
p412
aVmollusc
p413
aVErnst Mayr
p414
aVphronesis
p415
aVPhantom Thread
p416
aVFelix Jacoby
p417
aVpsychology
p418
aVCommon fig
p419
aVRenaissance
p420
aVAlpharabius
p421
aVGalen
p422
aVJohann Jakob Dorner the Elder
p423
aVAcademy Award for Best Cinematography
p424
aVperception
p425
aVcrustacea
p426
aVformal cause
p427
aVScientific and Engineering Award
p428
aVAustralian Antarctic Division
p429
aVMarlon Brando
p430
aVmisogyny
p431
aVChameleon
p432
aVCrustaceans
p433
aVPtolemaic dynasty
p434
aVembryo
p435
aVbotany
p436
aVnatural science
p437
aVPacific Time Zone
p438
aVinstant runoff voting
p439
aVnatural theology
p440
aVAristotelian physics
p441
aVOscar speech
p442
aVAcademy Award for Best Production Design
p443
aVOscar bait
p444
aVHollywood Roosevelt Hotel
p445
aVClassical Greece
p446
aVPythia
p447
aVAcademy Honorary Award
p448
aVAlasdair MacIntyre
p449
aVEarly Modern
p450
aVOttoman viper
p451
aVesoteric
p452
aVShrimp
p453
aVEmmy Awards
p454
aVLate Antiquity
p455
aVpulse
p456
aVcamera obscura
p457
aVOxford University Press
p458
aVtreatise
p459
aVCarlo Rovelli
p460
aVNew Century Theatre
p461
aVBertrand Russell
p462
aVList of actors with Academy Award nominations
p463
aVThe Story of Philosophy
p464
aVTheophrastus
p465
aVAlkindus
p466
aVIslamic theology
p467
aVAustralian Government
p468
aVSubstance theory
p469
aVparadeigma
p470
aVSanta Monica Civic Auditorium
p471
aVTheory of Forms
p472
aVLysippos
p473
aVMnason of Phocis
p474
aVrange voting
p475
aVDemocritus
p476
aVScientific Committee on Antarctic Research
p477
aVSumma Theologica
p478
aVForensic rhetoric
p479
aVPeter Medawar
p480
aVCornell University
p481
aVfresco
p482
aVHawaii
p483
aVinvertebrate
p484
aVLogic
p485
aVfinal cause
p486
aVJordan Peele
p487
aVSuda
p488
aVGeoffrey Chaucer
p489
aVAntarctica
p490
aVEarth
p491
aVWilliam Harvey
p492
aVSpeusippus
p493
aVCetaceans
p494
aVThe Atlantic
p495
aVSponges
p496
aVsexism
p497
aVTony Award
p498
aVNeoplatonism
p499
aVJudith Hoag
p500
aVNuremberg Chronicle
p501
aVMichael of Ephesus
p502
aVEmmy Award
p503
aVPythias
p504
aVcommon sense
p505
aVJustus van Gent
p506
aVEntertainment Weekly
p507
aVOrson Welles
p508
aVHomer
p509
aVCBS News
p510
aValabaster
p511
aVSpecial Achievement Academy Award
p512
aVThe Hollywood Reporter
p513
aVAcademy Award for Best Supporting Actress
p514
aVJean Hersholt Humanitarian Award
p515
aVsyllogism
p516
aVevolution
p517
aVAncient philosophy
p518
aVgeneric trademark
p519
aVGrammy Award
p520
aVFGrHist
p521
aVJohn Salley
p522
aVcatharsis
p523
aVbrood size
p524
aVAntipater
p525
aVdevelopmental biology
p526
aVAcademy Award for Best Sound Mixing
p527
aVClaudius Aelianus
p528
aVentelecheia
p529
aVAcademy Award for Best Actress
p530
aVOedipus Rex
p531
aVMacedon
p532
aVscrolls
p533
aVDunamis
p534
aVBiology
p535
aVThe Godfather
p536
aVNew York City
p537
aVMaterial substratum
p538
aVLos Angeles
p539
aVyolk sac
p540
aVtheory of impetus
p541
aVEudemos of Rhodes
p542
aVpremise
p543
aVClarendon Press
p544
aVBook frontispiece
p545
aVbronze
p546
aVThessaloniki
p547
aVPotentiality and actuality
p548
aVAcademy Award for Best Makeup and Hairstyling
p549
aVPeripatetic school
p550
aVEurymedon the Hierophant
p551
aVpapyrus
p552
aVCritique of Pure Reason
p553
aVlogic
p554
aVZoology
p555
aVBritannia metal
p556
aVTheory of forms
p557
aVPolitics
p558
aVMusic
p559
aVadaptation
p560
aVCollins English Dictionary
p561
aVOn the Soul
p562
aVGeorge Boole
p563
aVAssociated Press
p564
aVSunset Tower
p565
aVvanishing point
p566
aVWilliam Friedkin
p567
aVAugust Boeckh
p568
aVAverroes
p569
aVNewtonian physics
p570
aVuniversals
p571
aVPassover
p572
aVCalifornia
p573
aVDorothy Chandler Pavilion
p574
aVMiddle Ages
p575
aVGary Oldman
p576
aVLiquid
p577
aVpericarp
p578
aVWilliam of Moerbeke
p579
aVLucretius
p580
aVThe Laws of Thought
p581
aVHollywood Bowl
p582
aVGreek language
p583
aVprogressive scan
p584
aVMidnight Cowboy
p585
aVMotion Picture and Television Fund
p586
aVAnt
p587
aVclassical element
p588
aVJohn Philoponus
p589
aVHans Baldung
p590
aVItalian language
p591
aVPlutarch
p592
aVKate Linder
p593
aVLos Angeles Music Center
p594
aVDemetrius of Phalerum
p595
aVontogeny
p596
aVHermias of Atarneus
p597
aVJimmy Kimmel
p598
aVEaster
p599
aVanachronism
p600
aVHerpyllis
p601
aVVince Lombardi Trophy
p602
aVAcademy Award for Best Original Score
p603
aVcatfish
p604
aVFrancesco Hayez
p605
aVAcademy Award for Best Visual Effects
p606
aVNile delta
p607
aVProdicus of Ceos
p608
aVThe Canterbury Tales
p609
aVefficient cause
p610
aVCedric Gibbons
p611
aVRaphael
p612
aVfecundity
p613
aVTufts University
p614
aVPersia
p615
aVwhale
p616
aVPhysics
p617
aVOscar season
p618
aVAcademy Award for Best Adapted Screenplay
p619
aVMilky Way
p620
aVCampaspe
p621
aVOn Generation and Corruption
p622
aVProxenus of Atarneus
p623
aVMaterial cause
p624
aVIndianapolis Museum of Art
p625
aVAcademy Award for Best Original Song
p626
aVPlatonism
p627
aVanimal behaviour
p628
aVAcademy Award for Technical Achievement
p629
aVInternational Academy of the History of Science
p630
aVstate of nature
p631
aVPtolemy I Soter
p632
aVAeolian islands
p633
aVAristotle with a Bust of Homer
p634
aVhamartia
p635
aVGas
p636
aVempiricism
p637
aVEthics
p638
aVFox News
p639
aVAristoxenus
p640
aVplurality voting
p641
aVnightjar
p642
aVrhetoric
p643
aVdialectics
p644
aVDepartment of the Environment and Energy
p645
aVphylogeny
p646
aVCelestial spheres
p647
aVvacuum
p648
aVEarly Middle Ages
p649
aVRembrandt
p650
aVplacenta
p651
aVShark
p652
aVAlexandria
p653
aVPalaephatus
p654
aVOvoviviparity
p655
aVSouthern Illinois University Press
p656
aVMetaphysics
p657
aVDicaearchus
p658
aVBlack tie
p659
aVelectric ray
p660
aVEmil Jannings
p661
aVNielsen ratings
p662
aVphenomena
p663
aVAristotelian society
p664
aVcicada
p665
aVeudaimonia
p666
aVNicholl Fellowships in Screenwriting
p667
aVDeliberative rhetoric
p668
aVconvergent evolution
p669
aVGovernment
p670
aVNicomachean Ethics
p671
aVphilosopher
p672
aVUnited States dollar
p673
aVLesbos
p674
aVEthnocentricism
p675
aVethos
p676
aVAlexander the Great
p677
aVbiology
p678
aVmedieval
p679
aVMillennium Biltmore Hotel
p680
aVscala naturae
p681
aVStudent Academy Awards
p682
aVAcademy Award for Best Assistant Director
p683
aVAcademy Award for Best Story
p684
aVInternet Encyclopedia of Philosophy
p685
aVHarpalus
p686
aVAcademy Scientific and Technical Award
p687
aVontology
p688
aVCephalopods
p689
aVFrances McDormand
p690
aVBoolean algebra
p691
aVCharles Darwin
p692
aVSnakes
p693
aVPeter Abelard
p694
aVvideophone
p695
aVformal logic
p696
aVScala naturae
p697
aVoctopus
p698
aVBirds
p699
aVreptile
p700
aVepideictic
p701
aVvertebrate
p702
aVAndronicus of Rhodes
p703
aVParts of Animals
p704
aVThe Forms
p705
aVmathematical logic
p706
aVStephen of Alexandria
p707
aVspeciation
p708
aVzoology
p709
aVAcademy Award for Best Original Screenplay
p710
aVdeductive system
p711
aVPrice Waterhouse
p712
aVLyceum
p713
aVcirculation of the blood
p714
aVCatholic Church
p715
aVLogical consequence
p716
aVWalt Disney
p717
aVNBC
p718
aVhylomorphism
p719
aVNBA
p720
aVhare
p721
aVSyllogism
p722
aVAcademy Award for Best Supporting Actor
p723
aVThe tale of Phyllis and Aristotle
p724
aVAvicenna
p725
aVteleological
p726
aVpaper nautilus
p727
aVbiological rules
p728
aVSan Fernando Valley
p729
aVfrogfish
p730
aVArchimedes
p731
aVDolphin
p732
aVAttempted assassination of Ronald Reagan
p733
aVArt Deco
p734
aVLucas Cranach the Elder
p735
aVHerophilos
p736
aVSam Rockwell
p737
aVAcademy Award for Best Picture
p738
aVselachian
p739
aVexoteric
p740
aVAristotelianism
p741
aVmimesis
p742
aVIslamic philosophy
p743
aVhectocotylus
p744
aVRonald Reagan
p745
aVsingle transferable vote
p746
aVAnna Comnena
p747
aVInductive reasoning
p748
aVThe School of Athens
p749
aVMelrose Avenue
p750
aVmaterial cause
p751
aVBette Davis
p752
aVhound shark
p753
aVworm
p754
aVastronomy
p755
aVfeminist metaphysics
p756
aVvein
p757
aVbivalve
p758
aVteleology
p759
aVUniformitarianism
p760
aVenthymeme
p761
aVBeverly Hills Hotel
p762
aVHagnothemis
p763
aVOxford Studies in Ancient Philosophy
p764
aVAcademy Award for Best Unique and Artistic Production
p765
aVImmanuel Bekker
p766
aVdigital cinema
p767
atRp768
sI3
g2
((lp769
VAddams Family Values
p770
aVLaurence Bennett
p771
aVJames Basevi
p772
aVBlackboard Jungle
p773
aVPhilip Rosenberg
p774
aVShane Vieau
p775
aVLazare Meerson
p776
aVPerry Ferguson
p777
aVRaphael Bretton
p778
aVJack Okey
p779
aVBernard Herzbrun
p780
aVRobert Cartwright
p781
aVGary Fettis
p782
aVThe Climax
p783
aVLisa Dean Kavanaugh
p784
aVJeffrey Beecroft
p785
aVDances with Wolves
p786
aVGary Brink
p787
aVAline Bonetto
p788
aVThe Last Angry Man
p789
aVCarmen Dillon
p790
aVBlade Runner
p791
aVCaryl Heller
p792
aVThat Touch of Mink
p793
aVLionel Couch
p794
aVMarc Frederix
p795
aVRenzo Mongiardino
p796
aVCindy Carr
p797
aVThis Is the Army
p798
aVJulia Heron
p799
aVLe Plaisir
p800
aVJeff Melvin
p801
aVMy Gal Sal
p802
aVGil Parrondo
p803
aVThe Sting
p804
aVHoward Bristol
p805
aVCarroll Clark
p806
aVThe Greatest Story Ever Told
p807
aVHein Heckroth
p808
aVJack Fisk
p809
aVThe Foxes of Harrow
p810
aVNicholas and Alexandra
p811
aVDark Command
p812
aVLionel Banks
p813
aVPaul Huldschinsky
p814
aVJohn De Cuir
p815
aVMichael Corenblith
p816
aVJack Otterson
p817
aVGosford Park
p818
aVRobert Priestley
p819
aVTambi Larsen
p820
aVGrant Major
p821
aVTrisha Edwards
p822
aVThe Last Samurai
p823
aVAntonio Mateos
p824
aVRena DeAngelo
p825
aVTony Walton
p826
aVJosie MacAvin
p827
aVArthur Lonergan
p828
aVReap the Wild Wind
p829
aVMaurice Ransford
p830
aVAnne Kuljian
p831
aVDan Lomino
p832
aVElliot Scott
p833
aVJohn DuCasse Schultze
p834
aVVan Nest Polglase
p835
aVThe Slender Thread
p836
aVAssheton Gorton
p837
aVJim Poynter
p838
aVRalph Berger
p839
aVThe Red Danube
p840
aVJohn Graysmark
p841
aVPaul Sylbert
p842
aVFourteen Hours
p843
aVHal Pereira
p844
aVAnne of the Thousand Days
p845
aVBruno Cesari
p846
aVCarolyn Scott
p847
aVDante Ferretti
p848
aVErnie Archer
p849
aVDick Pefferle
p850
aVBo Welch
p851
aVStuart Reiss
p852
aVGiuseppe Mariani
p853
aVLadies in Retirement
p854
aVMad About Music
p855
aVMartin Obzina
p856
aVClaude Carpenter
p857
aVPierre Guffroy
p858
aVGarrett Lewis
p859
aVAmerican Hustle
p860
aVRodger Maus
p861
aVWilliam Kellner
p862
aVShakespeare in Love
p863
aVUnited Artists
p864
aVMy Favorite Wife
p865
aVExecutive Suite
p866
aVThe Young Victoria
p867
aVStuart Craig
p868
aVLyle Reifsnider
p869
aVDean Tavoularis
p870
aVThe Apartment
p871
aVHans Dreier
p872
aVWard Preston
p873
aVRoad to Perdition
p874
aVRobert Drumheller
p875
aVAnthony Mondell
p876
aVHarry Horner
p877
aVPhil Abramson
p878
aVRay Moyer
p879
aVGene Callahan
p880
aVBeth Rubino
p881
aVStuart Wurtzel
p882
aVJack Maxsted
p883
aVKundun
p884
aVDan Hennah
p885
aVThat Hamilton Woman
p886
aVRoss Bellah
p887
aVThe Godfather Part II
p888
aVGordon Wiles
p889
aVMartin Childs
p890
aVJohn Bonar
p891
aVThe Empire Strikes Back
p892
aVMidnight in Paris
p893
aVJan Roelfs
p894
aVOn the Waterfront
p895
aVSarah Greenwood
p896
aVThe Shanghai Gesture
p897
aVThe Americanization of Emily
p898
aVEdward Carrere
p899
aVThe Magnificent Brute
p900
aVThomas Little
p901
aVJess Gonchor
p902
aVBrigitte Broch
p903
aVTom Pedigo
p904
aVRaoul Pene du Bois
p905
aVAnna and the King
p906
aVHannah and Her Sisters
p907
aVDown Argentine Way
p908
aVRobert de Vestel
p909
aVStephen Goosson
p910
aVRoland Anderson
p911
aVDario Simoni
p912
aVFerdinando Scarfiotti
p913
aVLuigi Gervasi
p914
aVRebecca Alleway
p915
aVInteriors
p916
aVMitchell Leisen
p917
aVFritz Maurischat
p918
aVList of posthumous Academy Award winners and nominees
p919
aVFernando Carrere
p920
aVCaptains of the Clouds
p921
aVThe China Syndrome
p922
aVBedknobs and Broomsticks
p923
aVThe Affairs of Cellini
p924
aVLeave Her to Heaven
p925
aVVladimir Uvarov
p926
aVGangs of New York
p927
aVMaurice Pelling
p928
aVJudy Becker
p929
aVRadio Days
p930
aVHarry Cordwell
p931
aVSunrise at Campobello
p932
aVFrank McKelvy
p933
aVEzio Frigerio
p934
aVYoung Winston
p935
aVSince You Went Away
p936
aVAllan Starski
p937
aVAnastasia Masaro
p938
aVHenry Grace
p939
aVTessa Davies
p940
aVSeven Days in May
p941
aVGrace Gregory
p942
aVThe Prince of Tides
p943
aVWilliam Tuntke
p944
aVLeland Fuller
p945
aVRick Carter
p946
aVDorree Cooper
p947
aVAlfred Herman
p948
aVMichael Seirton
p949
aVLilly Kilvert
p950
aVRepublic Pictures
p951
aVGianni Quaranta
p952
aVAlexander Toluboff
p953
aVEdward Ray Robinson
p954
aVGretchen Rau
p955
aVHugh Hunt
p956
aVBlack Narcissus
p957
aVAnthony Masters
p958
aVCaptain Fury
p959
aVElio Altramura
p960
aVHamish Purdy
p961
aVEugenio Caballero
p962
aVMaggie Gray
p963
aVFay Babcock
p964
aVLa Dolce Vita
p965
aVRudolph Sternad
p966
aVAlexander Golitzen
p967
aVThe Last Emperor
p968
aVThoroughly Modern Millie
p969
aVJust Imagine
p970
aVLee Sandales
p971
aVIrene Sharaff
p972
aVSimon Bright
p973
aVRandall Duell
p974
aVGeorgi Koshelev
p975
aVThe Life of Emile Zola
p976
aVPhilip Jefferies
p977
aVTony Reading
p978
aVNorth by Northwest
p979
aVKerrie Brown
p980
aVPeter Lando
p981
aVRain Man
p982
aVJohn Vallone
p983
aVJerry Wunderlich
p984
aVStephen Grimes
p985
aVFantastic Voyage
p986
aVGemma Jackson
p987
aVFrancesca Lo Schiavo
p988
aVThe Man with the Golden Arm
p989
aVTwilight of Honor
p990
aVSilver Queen
p991
aVCasey Roberts
p992
aVMichael Standish
p993
aVEugenio Zanetti
p994
aVLinda Descenna
p995
aVAnton Grot
p996
aVLarry Dias
p997
aVEve Stewart
p998
aVRalph Hammeras
p999
aVJoanne Woollard
p1000
aVKen Adam
p1001
aVMichael Relph
p1002
aVJulie Ochipinti
p1003
aVKatie Spencer
p1004
aVElven Webb
p1005
aVTom Morahan
p1006
aVThe Proud and Profane
p1007
aVRick Simpson
p1008
aVRobert Emmet Smith
p1009
aVThe Son of Monte Cristo
p1010
aVTo Catch a Thief
p1011
aVRaoul Pene Du Bois
p1012
aVDennis Gassner
p1013
aVCasanova Brown
p1014
aVForrest Gump
p1015
aVSanto Loquasto
p1016
aVOsvaldo Desideri
p1017
aVBAFTA Award for Best Production Design
p1018
aVShinobu Muraki
p1019
aVMarvin March
p1020
aVWalter Simonds
p1021
aVHeather Loeffler
p1022
aVWiard Ihnen
p1023
aVMerrill Pye
p1024
aVMister Buddwing
p1025
aVJean Rabasse
p1026
aVCrispian Sallis
p1027
aVOliver Emert
p1028
aVFunny Face
p1029
aVVictor Victoria
p1030
aVThe Pigeon That Took Rome
p1031
aVWilliam Glasgow
p1032
aVTerence Marsh
p1033
aVRoss Dowd
p1034
aVThe Island at the Top of the World
p1035
aVGuy Hendrix Dyas
p1036
aVHaldane Douglas
p1037
aVThe Cardinal
p1038
aVAdam Stockhausen
p1039
aVHugh Scaife
p1040
aVLeslie Bloom
p1041
aVThe Shootist
p1042
aVKagemusha
p1043
aVVisit to a Small Planet
p1044
aVRichard Sylbert
p1045
aVWilfred Shingleton
p1046
aVFanny and Alexander
p1047
aVAlexandre Trauner
p1048
aVMan of Conquest
p1049
aVArthur Jeph Parker
p1050
aVDriving Miss Daisy
p1051
aVVassilis Photopoulos
p1052
aVMission to Moscow
p1053
aVIt Started in Naples
p1054
aVUnforgiven
p1055
aVThe Quiet Man
p1056
aVThe Wonderful World of the Brothers Grimm
p1057
aVWilliam Kiernan
p1058
aVRichard Pefferle
p1059
aVAlexander Trauner
p1060
aVFranz Bachelin
p1061
aVAl Roelofs
p1062
aVNorman Rockett
p1063
aVToo Young to Kiss
p1064
aVLorenzo Mongiardino
p1065
aVThe Towering Inferno
p1066
aVWilliam Flannery
p1067
aVWalter Holscher
p1068
aVDaniel Cathcart
p1069
aVLouis Diage
p1070
aVExperiment Perilous
p1071
aVThe Incredible Sarah
p1072
aVRobert Stromberg
p1073
aVJoe Alves
p1074
aVUrie McCleary
p1075
aVEdwin Casey Roberts
p1076
aVThe Solid Gold Cadillac
p1077
aVLegends of the Fall
p1078
aVThe Great Ziegfeld
p1079
aVWilly Holt
p1080
aVNancy Haigh
p1081
aVPaul Markwitz
p1082
aVSouls at Sea
p1083
aVMerideth Boswell
p1084
aVJoe Jennings
p1085
aVCary Odell
p1086
aVThe Godfather Part III
p1087
aVStephenie McMillan
p1088
aVReturn of the Jedi
p1089
aVSome Like It Hot
p1090
aVLeslie Pope
p1091
aVSaving Private Ryan
p1092
aVHerman Rosse
p1093
aVMildred Griffiths
p1094
aVThe Molly Maguires
p1095
aVLuciana Arrighi
p1096
aVGeoffrey Drake
p1097
aVBruce Weintraub
p1098
aVCelia Bobak
p1099
aVJohn Victor Mackay
p1100
aVThe Adventures of Robin Hood
p1101
aVMalcolm Bert
p1102
aVJohn DeCuir
p1103
aVJuliet of the Spirits
p1104
aVCarmelo Patrono
p1105
aVAngelo Graham
p1106
aVJohn Sturtevant
p1107
aVKing of Jazz
p1108
aVSeven Samurai
p1109
aVGeorge Washington Slept Here
p1110
aVSong of the Open Road
p1111
aVLili
p1112
aVFrida
p1113
aVWilliam Creber
p1114
aVHenry Bumstead
p1115
aVSaraband for Dead Lovers
p1116
aVEd Graves
p1117
aVWilliam Ferrari
p1118
aVThe Abyss
p1119
aVMerrily We Live
p1120
aVEddie Imazu
p1121
aVNathan Crowley
p1122
aVJacques Mersereau
p1123
aVGabriel Bechir
p1124
aVQuills
p1125
aVThe Story of Three Loves
p1126
aVInception
p1127
aVThe Love Parade
p1128
aVJill Quertier
p1129
aVOtto Siegel
p1130
aVVeniero Colasanti
p1131
aVRa Vincent
p1132
aVDarrell Silvera
p1133
aVBullets over Broadway
p1134
aVDale Hennesy
p1135
aVPamela Cornell
p1136
aVJoseph McMillan Johnson
p1137
aVBrian Savegar
p1138
aVBertram Granger
p1139
aVBill Malley
p1140
aVErnest Archer
p1141
aVLisa Dean
p1142
aVDaniel Robert
p1143
aVThe Imitation Game
p1144
aVRalph Brinton
p1145
aVJohn DuCasse Schulze
p1146
aVJack Collis
p1147
aVThe Shoes of the Fisherman
p1148
aVWho Framed Roger Rabbit
p1149
aVPaul Hotte
p1150
aVMario Chiari
p1151
aVDonald Graham Burt
p1152
aVSayonara
p1153
aVCome to the Stable
p1154
aVVernon Dixon
p1155
aVAddison Hehr
p1156
aVRaiders of the Lost Ark
p1157
aVHal Gausman
p1158
aVTaizoh Kawashima
p1159
aVThe Madness of King George
p1160
aVJohn Myhre
p1161
aVEdward Carfagno
p1162
aVTerms of Endearment
p1163
aVTed Marshall
p1164
aVRobert Luthardt
p1165
aVGene Serdena
p1166
aVRobert Usher
p1167
aVGennady Myasnikov
p1168
aVJack Poplin
p1169
aVCarl Biddiscombe
p1170
aVEwa Braun
p1171
aVFred Hole
p1172
aVSusan Bode
p1173
aVInside Daisy Clover
p1174
aVTony Inglis
p1175
aVFive Graves to Cairo
p1176
aVThe Rains Came
p1177
aVHarry Oliver
p1178
aVBen Van Os
p1179
aVJim Morahan
p1180
aVNorman Reynolds
p1181
aVEmile Kuri
p1182
aVAdventures of Don Juan
p1183
aVArthur Krams
p1184
aVJack McConaghy
p1185
aVThousands Cheer
p1186
aVBarton Fink
p1187
aVTed Haworth
p1188
aVRosie Goodwin
p1189
aVSusanne Lingheim
p1190
aVGordon Sim
p1191
aVAnne Seibel
p1192
aVPilar Revuelta
p1193
aVBob Cartwright
p1194
aVGeorge Sawley
p1195
aVJohn Stoll
p1196
aVVincent Korda
p1197
aVPaul Groesse
p1198
aVLes Dilley
p1199
aVJeannine Claudia Oppewall
p1200
aVThe Grand Budapest Hotel
p1201
aVThe Adventures of Baron Munchausen
p1202
aVThe Heiress
p1203
aVAnna Asp
p1204
aVThe Pride of the Yankees
p1205
aVAnn Mollo
p1206
aVThe Goldwyn Follies
p1207
aVArmin Ganz
p1208
aVHania Robledo
p1209
aVCheryl Carasik
p1210
aVBugsy
p1211
aVBarry Lyndon
p1212
aVJocelyn Herbert
p1213
aVThe Big Fisherman
p1214
aVRobert Odell
p1215
aVTimmy Yip
p1216
aVAlbert Brenner
p1217
aVArthur Max
p1218
aVFredric Hope
p1219
aVDebra Schutt
p1220
aVJan Pascale
p1221
aVAlessandra Querzola
p1222
aVThe Gay Divorcee
p1223
aVCarl Jules Weyl
p1224
aVKen Muggleston
p1225
aVLeslie Tomkins
p1226
aVHarley Miller
p1227
aVPolly Platt
p1228
aVThe Imaginarium of Doctor Parnassus
p1229
aVThe Way We Were
p1230
aVTop Hat
p1231
aVGeoffrey Kirkland
p1232
aVJack Martin Smith
p1233
aVBernhard Henrich
p1234
aVJack Stubbs
p1235
aVFrank Hotaling
p1236
aVScott Slimon
p1237
aVLove with the Proper Stranger
p1238
aVThere Will Be Blood
p1239
aVRudolf Sternad
p1240
aVAlan Tomkins
p1241
aVLes Girls
p1242
aVRichard Irvine
p1243
aVGeorge Milo
p1244
aVMax Parker
p1245
aVThe Birdcage
p1246
aVArrigo Breschi
p1247
aVLinda DeScenna
p1248
aVAlfred Junge
p1249
aVLeslie Dilley
p1250
aVPeter Lamont
p1251
aVJohn Victor MacKay
p1252
aVClose Encounters of the Third Kind
p1253
aVAll About Eve
p1254
aVOn the Riviera
p1255
aVDangerous Liaisons
p1256
aVAnton Furst
p1257
aVRick Heinrichs
p1258
aVMichael Stringer
p1259
aVCarol Joffe
p1260
aVYoung Bess
p1261
aVGattaca
p1262
aVHouse on Telegraph Hill
p1263
aVKim Sinclair
p1264
aVWard Ihnen
p1265
aVTeenage Rebel
p1266
aVAmerica America
p1267
aVHarold Michelson
p1268
aVBlood on the Sun
p1269
aVJudgment at Nuremberg
p1270
aVMel Bourne
p1271
aVHold Back the Dawn
p1272
aVFranco Zeffirelli
p1273
aVOliver Messel
p1274
aVPeter Ellenshaw
p1275
aVWilliam Horning
p1276
aVAnthony Adverse
p1277
aVJohn Box
p1278
aVRochus Gliese
p1279
aVApocalypse Now
p1280
aVWilliam Cameron Menzies
p1281
aVIan Whittaker
p1282
aVThe Flame of New Orleans
p1283
aVStan Jolley
p1284
aVTony Burrough
p1285
aVWilliam Craig Smith
p1286
aVA Patch of Blue
p1287
aVPatrizia von Brandenstein
p1288
aVJay Hart
p1289
aVThe Private Lives of Elizabeth and Essex
p1290
aVJim Bissell
p1291
aVLuigi Scaccianoce
p1292
aVGeorge James Hopkins
p1293
aVNorman Garwood
p1294
aVBoris Juraga
p1295
aVHerbert Strabel
p1296
aVPatrice Vermette
p1297
aVAlbert Nozaki
p1298
aVJim Erickson
p1299
aVBlossoms in the Dust
p1300
aVJo Mielziner
p1301
aVRuby Levitt
p1302
aVFlight for Freedom
p1303
aVJohn Truscott
p1304
aVPiero Gherardi
p1305
aVBoris Leven
p1306
aVAl Fields
p1307
aVRolf Zehetbauer
p1308
aVGabriel Scognamillo
p1309
aVAnna Pinnock
p1310
aVCecil Beaton
p1311
aVSo Matsuyama
p1312
aVJeannine Oppewall
p1313
aVCharles Novi
p1314
aVThe Princess and the Pirate
p1315
aVThe Fortune Cookie
p1316
aVWilliam Sandell
p1317
aVThe Bad and the Beautiful
p1318
aVIf I Were King
p1319
aVPaul Sheriff
p1320
aVJoseph Kish
p1321
aVBruno Rubeo
p1322
aVIda Random
p1323
aVA Very Long Engagement
p1324
aVart direction
p1325
atRp1326
s.