(dp1
I0
c__builtin__
set
p2
((lp3
S'Great American Novel'
p4
atRp5
sI1
g2
((lp6
VMark Twain
p7
aVThomas Pynchon
p8
aVTheodore Dreiser
p9
aVAmerican Civil War
p10
aVCulture of the United States
p11
aVFreedom (Jonathan Franzen novel)
p12
aVGone with the Wind (novel)
p13
aVInfinite Jest
p14
aVUnderworld (DeLillo novel)
p15
aVThe Adventures of Augie March
p16
aVPlatonic ideal
p17
aVMartin Amis
p18
aVThe Grapes of Wrath
p19
aVLarry McMurtry
p20
aVAmerican English
p21
aVThe Scarlet Letter
p22
aVHistory of the United States
p23
aVWilliam Gaddis
p24
aVHenry Fonda
p25
aVRalph Ellison
p26
aVJack Kirby
p27
aVAmerican Pastoral
p28
aVWilliam Faulkner
p29
aVNational epic
p30
aVThe American Scholar
p31
aVColonial America
p32
aVVladimir Nabokov
p33
aVHarper Lee
p34
aVMichael Chabon
p35
aVAn American Tragedy
p36
aVJ. D. Salinger
p37
aVJ R
p38
aVRichard Wright (author)
p39
aVPBS
p40
aVErnest Hemingway
p41
aVUnited States citizen
p42
aVUniversity of Manchester
p43
aVJohn Dos Passos
p44
aVStan Lee
p45
aVLonesome Dove
p46
aVGilead (novel)
p47
aVLiterary work
p48
aVLight in August
p49
aVJohn Updike
p50
aVThe Last of the Mohicans
p51
aVWestern canon
p52
aVCormac McCarthy
p53
aVFiction
p54
aVLiteral and figurative language
p55
aVThe Great Gatsby
p56
aVAmerican author
p57
aVThe Adventures of Tom Sawyer
p58
aVDavid Foster Wallace
p59
aVThe Grapes of Wrath (film)
p60
aVPhilip Roth
p61
aVF. Scott Fitzgerald
p62
aVJonathan Franzen
p63
aVMoby-Dick
p64
aVNovel
p65
aVHarriette Simpson Arnow
p66
aVNative Son
p67
aVToni Morrison
p68
aVA Farewell to Arms
p69
aVAdventures of Huckleberry Finn
p70
aVJohn William De Forest
p71
aVAmerican Masters
p72
aVAmerican literature
p73
aVThe Catcher in the Rye
p74
aVMarilynne Robinson
p75
aVInvisible Man
p76
aVLolita
p77
aVSaul Bellow
p78
aVThe Amazing Adventures of Kavalier and Clay
p79
aVJames Fenimore Cooper
p80
aVHerman Melville
p81
aVBlood Meridian
p82
aVDon DeLillo
p83
aVRichard Rodriguez
p84
aVHarriet Beecher Stowe
p85
aVJohn Steinbeck
p86
aVBeloved (novel)
p87
aVFantastic Four
p88
aVMargaret Mitchell
p89
aVThe Dollmaker (novel)
p90
aVNathaniel Hawthorne
p91
aVTo Kill a Mockingbird
p92
atRp93
s.