(dp1
S'AbbadideS'
p2
S'Abbadid dynasty'
p3
sS'AcademyAwards/BestPicture'
p4
S'Academy Award for Best Picture'
p5
sS'AnAmericanInParis'
p6
S'An American in Paris'
p7
sS'AustroAsiaticLanguages'
p8
S'Austroasiatic languages'
p9
sS'AnchorageAlaska'
p10
S'Anchorage, Alaska'
p11
sS'AutoMorphism'
p12
S'Automorphism'
p13
sS'AsWeMayThink'
p14
S'As We May Think'
p15
sS'Abbreviations'
p16
S'Abbreviation'
p17
sS'AutoRacing'
p18
S'Auto racing'
p19
sS'AsciiArt'
p20
S'ASCII art'
p21
sS'AmericA'
p22
S'United States'
p23
sS'AbalonE'
p24
S'Abalone'
p25
sS'AbbesS'
p26
S'Abbess'
p27
sS'AlbaniaGovernment'
p28
S'Politics of Albania'
p29
sS'AnnaKournikova'
p30
S'Anna Kournikova'
p31
sS'AfricanAmericanPeople'
p32
S'African Americans'
p33
sS'AbacuS'
p34
S'Abacus'
p35
sS'ArthurKoestler'
p36
S'Arthur Koestler'
p37
sS'AfghanistanGeography'
p38
S'Geography of Afghanistan'
p39
sS'AbeceDarians'
p40
S'Abecedarian'
p41
sS'AtlasShrugged'
p42
S'Atlas Shrugged'
p43
sS'AustriaLanguage'
p44
S'Austrian German'
p45
sS'AfricA'
p46
S'Africa'
p47
sS'AfghanistanTransportations'
p48
S'Transport in Afghanistan'
p49
sS'AbbeY'
p50
S'Abbey'
p51
sS'AccessibleComputing'
p52
S'Computer accessibility'
p53
sS'AndorrA'
p54
S'Andorra'
p55
sS'AlbaniaEconomy'
p56
S'Economy of Albania'
p57
sS'ActionFilm'
p58
S'Action film'
p59
sS'ActresseS'
p60
S'Lists of actors'
p61
sS'Action Film'
p62
S'Action film'
p63
sS'AppliedStatistics'
p64
S'Statistics'
p65
sS'AssistiveTechnology'
p66
S'Assistive technology'
p67
sS'AnarchoCapitalists'
p68
S'Anarcho-capitalism'
p69
sS'AcademicElitism'
p70
S'Ivory tower'
p71
sS'ArgumentsForTheExistenceOfGod'
p72
S'Existence of God'
p73
sS'AlbaniaHistory'
p74
S'History of Albania'
p75
sS'AbensbergGermany'
p76
S'Abensberg'
p77
sS'ActressesS'
p78
S'Lists of actors'
p79
sS'AberdeenSouthDakota'
p80
S'Aberdeen, South Dakota'
p81
sS'AfghanistanHistory'
p82
S'History of Afghanistan'
p83
sS'AbbevilleFrance'
p84
S'Abbeville'
p85
sS'AbboT'
p86
S'Abbot'
p87
sS'AbeL'
p88
S'Cain and Abel'
p89
sS'AnarchY'
p90
S'Anarchy'
p91
sS'AfghanistanPeople'
p92
S'Demographics of Afghanistan'
p93
sS'AfroAsiaticLanguages'
p94
S'Afroasiatic languages'
p95
sS'AcademyAwards'
p96
S'Academy Awards'
p97
sS'AynRand'
p98
S'Ayn Rand'
p99
sS'AxiomOfChoice'
p100
S'Axiom of choice'
p101
sS'AfghanistanCommunications'
p102
S'Communications in Afghanistan'
p103
sS'AmericanFootball'
p104
S'American football'
p105
sS'AyersMusicPublishingCompany'
p106
S'Atlas Shrugged'
p107
sS'AlbaniaPeople'
p108
S'Demographics of Albania'
p109
sS'AtlasShruggedCharacters'
p110
S'List of Atlas Shrugged characters'
p111
sS'ArgumentForms'
p112
S'Logical form'
p113
sS'AmoeboidTaxa'
p114
S'Amoeba'
p115
sS'AfghanistanTransnationalIssues'
p116
S'Foreign relations of Afghanistan'
p117
sS'AnarchoCapitalism'
p118
S'Anarcho-capitalism'
p119
sS'AdolfHitler'
p120
S'Adolf Hitler'
p121
sS'AfghanistanMilitary'
p122
S'Afghan Armed Forces'
p123
sS'ArtificialLanguages'
p124
S'Constructed language'
p125
sS'AtlasShruggedCompanies'
p126
S'Atlas Shrugged'
p127
sS'ArtificalLanguages'
p128
S'Constructed language'
p129
sS'AlexanderTheGreat'
p130
S'Alexander the Great'
p131
s.